
EebelBodyMaster.elf:     file format elf32-avr

Sections:
Idx Name          Size      VMA       LMA       File off  Algn
  0 .data         0000015e  00800100  0000524a  000052de  2**0
                  CONTENTS, ALLOC, LOAD, DATA
  1 .text         0000524a  00000000  00000000  00000094  2**1
                  CONTENTS, ALLOC, LOAD, READONLY, CODE
  2 .bss          00000293  0080025e  0080025e  0000543c  2**0
                  ALLOC
  3 .comment      00000011  00000000  00000000  0000543c  2**0
                  CONTENTS, READONLY
  4 .debug_aranges 000001e0  00000000  00000000  00005450  2**3
                  CONTENTS, READONLY, DEBUGGING
  5 .debug_info   00000b22  00000000  00000000  00005630  2**0
                  CONTENTS, READONLY, DEBUGGING
  6 .debug_abbrev 0000012c  00000000  00000000  00006152  2**0
                  CONTENTS, READONLY, DEBUGGING
  7 .debug_line   000005ed  00000000  00000000  0000627e  2**0
                  CONTENTS, READONLY, DEBUGGING

Disassembly of section .text:

00000000 <__vectors>:
       0:	0c 94 69 0c 	jmp	0x18d2	; 0x18d2 <__ctors_end>
       4:	0c 94 86 0c 	jmp	0x190c	; 0x190c <__bad_interrupt>
       8:	0c 94 86 0c 	jmp	0x190c	; 0x190c <__bad_interrupt>
       c:	0c 94 86 0c 	jmp	0x190c	; 0x190c <__bad_interrupt>
      10:	0c 94 86 0c 	jmp	0x190c	; 0x190c <__bad_interrupt>
      14:	0c 94 86 0c 	jmp	0x190c	; 0x190c <__bad_interrupt>
      18:	0c 94 86 0c 	jmp	0x190c	; 0x190c <__bad_interrupt>
      1c:	0c 94 86 0c 	jmp	0x190c	; 0x190c <__bad_interrupt>
      20:	0c 94 86 0c 	jmp	0x190c	; 0x190c <__bad_interrupt>
      24:	0c 94 86 0c 	jmp	0x190c	; 0x190c <__bad_interrupt>
      28:	0c 94 cb 1e 	jmp	0x3d96	; 0x3d96 <__vector_10>
      2c:	0c 94 86 0c 	jmp	0x190c	; 0x190c <__bad_interrupt>
      30:	0c 94 86 0c 	jmp	0x190c	; 0x190c <__bad_interrupt>
      34:	0c 94 3d 1e 	jmp	0x3c7a	; 0x3c7a <__vector_13>
      38:	0c 94 47 19 	jmp	0x328e	; 0x328e <__vector_14>
      3c:	0c 94 86 0c 	jmp	0x190c	; 0x190c <__bad_interrupt>
      40:	0c 94 86 0c 	jmp	0x190c	; 0x190c <__bad_interrupt>
      44:	0c 94 86 0c 	jmp	0x190c	; 0x190c <__bad_interrupt>
      48:	0c 94 b4 1b 	jmp	0x3768	; 0x3768 <__vector_18>
      4c:	0c 94 ed 1b 	jmp	0x37da	; 0x37da <__vector_19>
      50:	0c 94 86 0c 	jmp	0x190c	; 0x190c <__bad_interrupt>
      54:	0c 94 86 0c 	jmp	0x190c	; 0x190c <__bad_interrupt>
      58:	0c 94 86 0c 	jmp	0x190c	; 0x190c <__bad_interrupt>
      5c:	0c 94 86 0c 	jmp	0x190c	; 0x190c <__bad_interrupt>
      60:	0c 94 86 0c 	jmp	0x190c	; 0x190c <__bad_interrupt>
      64:	0c 94 86 0c 	jmp	0x190c	; 0x190c <__bad_interrupt>
      68:	9e 14       	cp	r9, r14
      6a:	b3 14       	cp	r11, r3
      6c:	d2 14       	cp	r13, r2
      6e:	e8 14       	cp	r14, r8
      70:	00 15       	cp	r16, r0
      72:	16 15       	cp	r17, r6
      74:	34 15       	cp	r19, r4
      76:	51 15       	cp	r21, r1
      78:	6d 15       	cp	r22, r13
      7a:	8b 15       	cp	r24, r11
      7c:	ad 15       	cp	r26, r13
      7e:	cd 15       	cp	r28, r13
      80:	ed 15       	cp	r30, r13
      82:	fe 15       	cp	r31, r14
      84:	1e 16       	cp	r1, r30
      86:	40 16       	cp	r4, r16
      88:	52 16       	cp	r5, r18
      8a:	6f 16       	cp	r6, r31
      8c:	da 16       	cp	r13, r26
      8e:	da 16       	cp	r13, r26
      90:	da 16       	cp	r13, r26
      92:	da 16       	cp	r13, r26
      94:	da 16       	cp	r13, r26
      96:	da 16       	cp	r13, r26
      98:	da 16       	cp	r13, r26
      9a:	da 16       	cp	r13, r26
      9c:	da 16       	cp	r13, r26
      9e:	da 16       	cp	r13, r26
      a0:	da 16       	cp	r13, r26
      a2:	da 16       	cp	r13, r26
      a4:	da 16       	cp	r13, r26
      a6:	da 16       	cp	r13, r26
      a8:	da 16       	cp	r13, r26
      aa:	da 16       	cp	r13, r26
      ac:	da 16       	cp	r13, r26
      ae:	da 16       	cp	r13, r26
      b0:	da 16       	cp	r13, r26
      b2:	da 16       	cp	r13, r26
      b4:	da 16       	cp	r13, r26
      b6:	da 16       	cp	r13, r26
      b8:	da 16       	cp	r13, r26
      ba:	da 16       	cp	r13, r26
      bc:	da 16       	cp	r13, r26
      be:	da 16       	cp	r13, r26
      c0:	da 16       	cp	r13, r26
      c2:	da 16       	cp	r13, r26
      c4:	da 16       	cp	r13, r26
      c6:	da 16       	cp	r13, r26
      c8:	da 16       	cp	r13, r26
      ca:	da 16       	cp	r13, r26
      cc:	da 16       	cp	r13, r26
      ce:	8a 16       	cp	r8, r26
      d0:	94 16       	cp	r9, r20
      d2:	9c 16       	cp	r9, r28
      d4:	a4 16       	cp	r10, r20
      d6:	ac 16       	cp	r10, r28
      d8:	be 16       	cp	r11, r30
      da:	c8 16       	cp	r12, r24

000000dc <__trampolines_end>:
      dc:	49 6e       	ori	r20, 0xE9	; 233
      de:	76 61       	ori	r23, 0x16	; 22
      e0:	6c 69       	ori	r22, 0x9C	; 156
      e2:	64 20       	and	r6, r4
      e4:	4d 50       	subi	r20, 0x0D	; 13
      e6:	33 54       	subi	r19, 0x43	; 67
      e8:	72 69       	ori	r23, 0x92	; 146
      ea:	67 67       	ori	r22, 0x77	; 119
      ec:	65 72       	andi	r22, 0x25	; 37
      ee:	20 53       	subi	r18, 0x30	; 48
      f0:	6f 75       	andi	r22, 0x5F	; 95
      f2:	6e 64       	ori	r22, 0x4E	; 78
      f4:	20 43       	sbci	r18, 0x30	; 48
      f6:	6f 6d       	ori	r22, 0xDF	; 223
      f8:	6d 61       	ori	r22, 0x1D	; 29
      fa:	6e 64       	ori	r22, 0x4E	; 78
	...

000000fd <strSeqPanelWaveBye>:
      fd:	28 50 61 6e 65 6c 20 57 61 76 65 20 42 79 65 29     (Panel Wave Bye)
     10d:	20 0d 0a 00                                          ...

00000111 <strSeqMaxstangWiggle>:
     111:	28 4d 61 78 73 74 61 6e 67 20 57 69 67 67 6c 65     (Maxstang Wiggle
     121:	20 50 61 6e 65 6c 73 29 20 0d 0a 00                  Panels) ...

0000012d <strSeqMarchingAnts>:
     12d:	28 4d 61 72 63 68 69 6e 67 20 41 6e 74 73 20 50     (Marching Ants P
     13d:	61 6e 65 6c 73 29 20 0d 0a 00                       anels) ...

00000147 <strSeqRythmicPanels>:
     147:	28 52 79 74 68 6d 69 63 20 50 61 6e 65 6c 73 29     (Rythmic Panels)
     157:	20 0d 0a 00                                          ...

0000015b <strSeqScreamNoPanels>:
     15b:	28 53 63 72 65 61 6d 20 4e 6f 20 50 61 6e 65 6c     (Scream No Panel
     16b:	73 29 20 0d 0a 00                                   s) ...

00000171 <strSeqExcited>:
     171:	28 53 65 74 20 74 6f 20 45 78 63 69 74 65 64 29     (Set to Excited)
     181:	20 0d 0a 00                                          ...

00000185 <strSeqAwake>:
     185:	28 53 65 74 20 74 6f 20 41 77 61 6b 65 29 20 0d     (Set to Awake) .
     195:	0a 00                                               ..

00000197 <strSeqTopRC>:
     197:	28 41 6c 6c 20 70 69 65 20 70 61 6e 65 6c 73 20     (All pie panels 
     1a7:	74 6f 20 52 43 29 20 0d 0a 00                       to RC) ...

000001b1 <strSeqWideAwake>:
     1b1:	28 53 65 74 20 74 6f 20 57 69 64 65 20 41 77 61     (Set to Wide Awa
     1c1:	6b 65 29 20 0d 0a 00                                ke) ...

000001c8 <strSeqQuiet>:
     1c8:	28 53 65 74 20 74 6f 20 51 75 69 65 74 29 20 0d     (Set to Quiet) .
     1d8:	0a 00                                               ..

000001da <strSeqDisco>:
     1da:	28 44 69 73 63 6f 20 44 61 6e 63 65 29 20 0d 0a     (Disco Dance) ..
	...

000001eb <strSeqLeia>:
     1eb:	28 4c 65 69 61 20 4d 65 73 73 61 67 65 29 20 0d     (Leia Message) .
     1fb:	0a 00                                               ..

000001fd <strSeqCantinaDance>:
     1fd:	28 43 61 6e 74 69 6e 61 20 44 61 6e 63 65 29 20     (Cantina Dance) 
     20d:	0d 0a 00                                            ...

00000210 <strSeqShortCircuit>:
     210:	28 53 68 6f 72 74 20 43 69 72 63 75 69 74 29 20     (Short Circuit) 
     220:	0d 0a 00                                            ...

00000223 <strSeqCantinaMarchingAnts>:
     223:	28 43 61 6e 74 69 6e 61 20 4d 61 72 63 68 69 6e     (Cantina Marchin
     233:	67 20 41 6e 74 73 29 20 0d 0a 00                    g Ants) ...

0000023e <strSeqOpenCloseWave>:
     23e:	28 4f 70 65 6e 20 43 6c 6f 73 65 20 57 61 76 65     (Open Close Wave
     24e:	29 20 0d 0a 00                                      ) ...

00000253 <strSeqFastWave>:
     253:	28 46 61 73 74 20 57 61 76 65 29 20 0d 0a 00        (Fast Wave) ...

00000262 <strSeqWave>:
     262:	28 57 61 76 65 29 20 0d 0a 00                       (Wave) ...

0000026c <strSeqScream>:
     26c:	28 53 63 72 65 61 6d 29 20 0d 0a 00                 (Scream) ...

00000278 <strSeqCloseAll>:
     278:	28 43 6c 6f 73 65 20 61 6c 6c 20 70 61 6e 65 6c     (Close all panel
     288:	73 29 20 0d 0a 00                                   s) ...

0000028e <strPanelCmdErr>:
     28e:	2a 2a 49 6e 76 61 6c 69 64 20 50 61 6e 65 6c 20     **Invalid Panel 
     29e:	43 6f 6d 6d 61 6e 64 0d 0a 00                       Command...

000002a8 <strI2CCmdErr>:
     2a8:	2a 2a 49 6e 76 61 6c 69 64 20 49 32 43 20 43 6f     **Invalid I2C Co
     2b8:	6d 6d 61 6e 64 0d 0a 00                             mmand...

000002c0 <strAlt2Command>:
     2c0:	41 6c 74 32 20 63 6f 6d 6d 61 6e 64 2c 20 66 6f     Alt2 command, fo
     2d0:	72 77 61 72 64 20 74 6f 20 73 6c 61 76 65 0d 0a     rward to slave..
	...

000002e1 <strAlt1Command>:
     2e1:	41 6c 74 31 20 63 6f 6d 6d 61 6e 64 2c 20 6f 75     Alt1 command, ou
     2f1:	74 70 75 74 20 74 6f 20 73 6f 75 6e 64 0d 0a 00     tput to sound...

00000301 <strSoundCommand>:
     301:	53 6f 75 6e 64 20 63 6f 6d 6d 61 6e 64 0d 0a 00     Sound command...

00000311 <strDisplayCommand>:
     311:	44 69 73 70 6c 61 79 20 63 6f 6d 6d 61 6e 64 0d     Display command.
     321:	0a 00                                               ..

00000323 <strHPCommand>:
     323:	48 50 20 63 6f 6d 6d 61 6e 64 0d 0a 00              HP command...

00000330 <strInitializing>:
     330:	49 6e 69 74 69 61 6c 69 7a 69 6e 67 2e 2e 2e 0d     Initializing....
     340:	0a 00                                               ..

00000342 <strStartCharErr>:
     342:	2a 2a 55 6e 72 65 63 6f 67 6e 69 7a 65 64 20 43     **Unrecognized C
     352:	6f 6d 6d 61 6e 64 20 53 74 61 72 74 20 43 68 61     ommand Start Cha
     362:	72 61 63 74 65 72 0d 0a 00                          racter...

0000036b <strSuart2OK>:
     36b:	0a 0d 73 75 61 72 74 32 20 43 6f 6d 6d 75 6e 69     ..suart2 Communi
     37b:	63 61 74 69 6f 6e 20 4f 4b 20 0a 0d 00              cation OK ...

00000388 <strSuart1OK>:
     388:	0a 0d 73 75 61 72 74 31 20 43 6f 6d 6d 75 6e 69     ..suart1 Communi
     398:	63 61 74 69 6f 6e 20 4f 4b 20 0a 0d 00              cation OK ...

000003a5 <strEnterPrompt>:
     3a5:	45 6e 74 65 72 20 70 61 6e 65 6c 20 63 6f 6d 6d     Enter panel comm
     3b5:	61 6e 64 20 73 74 61 72 74 69 6e 67 20 77 69 74     and starting wit
     3c5:	68 20 27 3a 27 20 0a 0d 00                          h ':' ...

000003ce <strWelcome>:
     3ce:	0a 0d 4d 61 72 63 44 75 69 6e 6f 20 4d 61 73 74     ..MarcDuino Mast
     3de:	65 72 20 76 31 2e 37 20 0a 0d 00                    er v1.7 ...

000003e9 <strOK>:
     3e9:	4f 4b 0a 0d 00                                      OK...

000003ee <panel_long_disco>:
     3ee:	0f 00 d0 07 d0 07 d0 07 d0 07 d0 07 d0 07 d0 07     ................
     3fe:	d0 07 d0 07 d0 07 0f 00 e8 03 d0 07 d0 07 d0 07     ................
     40e:	d0 07 d0 07 d0 07 d0 07 d0 07 d0 07 0f 00 d0 07     ................
     41e:	e8 03 d0 07 d0 07 d0 07 d0 07 d0 07 d0 07 d0 07     ................
     42e:	d0 07 0f 00 d0 07 d0 07 e8 03 d0 07 d0 07 d0 07     ................
     43e:	d0 07 d0 07 d0 07 d0 07 0f 00 d0 07 d0 07 d0 07     ................
     44e:	e8 03 d0 07 d0 07 d0 07 d0 07 d0 07 d0 07 0f 00     ................
     45e:	d0 07 d0 07 d0 07 d0 07 e8 03 d0 07 d0 07 d0 07     ................
     46e:	d0 07 d0 07 0f 00 d0 07 d0 07 d0 07 d0 07 d0 07     ................
     47e:	e8 03 d0 07 d0 07 d0 07 d0 07 0f 00 d0 07 d0 07     ................
     48e:	d0 07 d0 07 d0 07 d0 07 e8 03 d0 07 d0 07 d0 07     ................
     49e:	0f 00 d0 07 d0 07 d0 07 d0 07 d0 07 d0 07 d0 07     ................
     4ae:	e8 03 d0 07 d0 07 0f 00 d0 07 d0 07 d0 07 d0 07     ................
     4be:	d0 07 d0 07 d0 07 d0 07 e8 03 d0 07 0f 00 d0 07     ................
     4ce:	d0 07 d0 07 d0 07 d0 07 d0 07 d0 07 d0 07 d0 07     ................
     4de:	e8 03 0f 00 d0 07 d0 07 d0 07 d0 07 d0 07 d0 07     ................
     4ee:	d0 07 d0 07 d0 07 d0 07 0f 00 d0 07 d0 07 d0 07     ................
     4fe:	d0 07 d0 07 d0 07 d0 07 d0 07 d0 07 e8 03 0f 00     ................
     50e:	d0 07 d0 07 d0 07 d0 07 d0 07 d0 07 d0 07 d0 07     ................
     51e:	e8 03 d0 07 0f 00 d0 07 d0 07 d0 07 d0 07 d0 07     ................
     52e:	d0 07 d0 07 e8 03 d0 07 d0 07 0f 00 d0 07 d0 07     ................
     53e:	d0 07 d0 07 d0 07 d0 07 e8 03 d0 07 d0 07 d0 07     ................
     54e:	0f 00 d0 07 d0 07 d0 07 d0 07 d0 07 e8 03 d0 07     ................
     55e:	d0 07 d0 07 d0 07 0f 00 d0 07 d0 07 d0 07 d0 07     ................
     56e:	e8 03 d0 07 d0 07 d0 07 d0 07 d0 07 0f 00 d0 07     ................
     57e:	d0 07 d0 07 e8 03 d0 07 d0 07 d0 07 d0 07 d0 07     ................
     58e:	d0 07 0f 00 d0 07 d0 07 e8 03 d0 07 d0 07 d0 07     ................
     59e:	d0 07 d0 07 d0 07 d0 07 0f 00 d0 07 e8 03 d0 07     ................
     5ae:	d0 07 d0 07 d0 07 d0 07 d0 07 d0 07 d0 07 0f 00     ................
     5be:	e8 03 d0 07 d0 07 d0 07 d0 07 d0 07 d0 07 d0 07     ................
     5ce:	d0 07 d0 07 0f 00 d0 07 d0 07 d0 07 d0 07 d0 07     ................
     5de:	d0 07 d0 07 d0 07 d0 07 d0 07 a0 8c ff ff ff ff     ................
     5ee:	ff ff ff ff ff ff ff ff ff ff ff ff ff ff ff ff     ................
     5fe:	98 08 ff ff ff ff ff ff ff ff ff ff ff ff ff ff     ................
     60e:	ff ff ff ff ff ff 00 00 ff ff ff ff ff ff ff ff     ................
     61e:	ff ff ff ff ff ff ff ff ff ff ff ff                 ............

0000062a <panel_init>:
     62a:	64 00 d0 07 d0 07 d0 07 d0 07 d0 07 d0 07 d0 07     d...............
     63a:	d0 07 d0 07 d0 07 00 00 ff ff ff ff ff ff ff ff     ................
     64a:	ff ff ff ff ff ff ff ff ff ff ff ff                 ............

00000656 <panel_dance>:
     656:	14 00 d0 07 d0 07 d0 07 d0 07 d0 07 d0 07 d0 07     ................
     666:	d0 07 d0 07 d0 07 2d 00 d0 07 d0 07 d0 07 d0 07     ......-.........
     676:	d0 07 d0 07 e8 03 d0 07 d0 07 d0 07 2d 00 d0 07     ............-...
     686:	d0 07 d0 07 d0 07 d0 07 d0 07 e8 03 e8 03 d0 07     ................
     696:	d0 07 2d 00 d0 07 d0 07 d0 07 d0 07 d0 07 d0 07     ..-.............
     6a6:	e8 03 e8 03 e8 03 d0 07 2d 00 d0 07 d0 07 d0 07     ........-.......
     6b6:	d0 07 d0 07 d0 07 e8 03 e8 03 e8 03 e8 03 2d 00     ..............-.
     6c6:	d0 07 d0 07 d0 07 d0 07 d0 07 d0 07 e8 03 e8 03     ................
     6d6:	e8 03 d0 07 2d 00 d0 07 d0 07 d0 07 d0 07 d0 07     ....-...........
     6e6:	d0 07 e8 03 e8 03 d0 07 d0 07 2d 00 d0 07 d0 07     ..........-.....
     6f6:	d0 07 d0 07 d0 07 d0 07 e8 03 d0 07 d0 07 d0 07     ................
     706:	2d 00 d0 07 d0 07 d0 07 d0 07 d0 07 d0 07 d0 07     -...............
     716:	d0 07 d0 07 d0 07 2d 00 e8 03 d0 07 d0 07 d0 07     ......-.........
     726:	d0 07 d0 07 d0 07 d0 07 d0 07 d0 07 2d 00 e8 03     ............-...
     736:	e8 03 d0 07 d0 07 d0 07 d0 07 d0 07 d0 07 d0 07     ................
     746:	d0 07 2d 00 e8 03 e8 03 e8 03 d0 07 d0 07 d0 07     ..-.............
     756:	d0 07 d0 07 d0 07 d0 07 2d 00 e8 03 e8 03 e8 03     ........-.......
     766:	e8 03 d0 07 d0 07 d0 07 d0 07 d0 07 d0 07 2d 00     ..............-.
     776:	d0 07 e8 03 e8 03 e8 03 d0 07 d0 07 d0 07 d0 07     ................
     786:	d0 07 d0 07 2d 00 d0 07 d0 07 e8 03 e8 03 d0 07     ....-...........
     796:	d0 07 d0 07 d0 07 d0 07 d0 07 2d 00 d0 07 d0 07     ..........-.....
     7a6:	d0 07 e8 03 d0 07 d0 07 d0 07 d0 07 d0 07 d0 07     ................
     7b6:	2d 00 d0 07 d0 07 d0 07 d0 07 d0 07 d0 07 d0 07     -...............
     7c6:	d0 07 d0 07 d0 07 2d 00 d0 07 d0 07 d0 07 d0 07     ......-.........
     7d6:	d0 07 d0 07 e8 03 d0 07 e8 03 d0 07 2d 00 d0 07     ............-...
     7e6:	d0 07 d0 07 d0 07 d0 07 d0 07 d0 07 d0 07 d0 07     ................
     7f6:	d0 07 2d 00 d0 07 d0 07 d0 07 d0 07 d0 07 d0 07     ..-.............
     806:	d0 07 e8 03 d0 07 e8 03 2d 00 d0 07 d0 07 d0 07     ........-.......
     816:	d0 07 d0 07 d0 07 d0 07 d0 07 d0 07 d0 07 2d 00     ..............-.
     826:	d0 07 d0 07 d0 07 d0 07 d0 07 d0 07 e8 03 e8 03     ................
     836:	e8 03 e8 03 2d 00 d0 07 d0 07 d0 07 d0 07 d0 07     ....-...........
     846:	d0 07 d0 07 e8 03 d0 07 e8 03 2d 00 d0 07 d0 07     ..........-.....
     856:	d0 07 d0 07 d0 07 d0 07 e8 03 d0 07 e8 03 d0 07     ................
     866:	2d 00 d0 07 d0 07 d0 07 d0 07 d0 07 d0 07 d0 07     -...............
     876:	d0 07 d0 07 d0 07 2d 00 d0 07 d0 07 d0 07 d0 07     ......-.........
     886:	e8 03 d0 07 d0 07 d0 07 d0 07 d0 07 2d 00 d0 07     ............-...
     896:	d0 07 d0 07 d0 07 d0 07 d0 07 d0 07 d0 07 d0 07     ................
     8a6:	d0 07 2d 00 d0 07 d0 07 d0 07 d0 07 d0 07 e8 03     ..-.............
     8b6:	d0 07 d0 07 d0 07 d0 07 2d 00 d0 07 d0 07 d0 07     ........-.......
     8c6:	d0 07 d0 07 d0 07 d0 07 d0 07 d0 07 d0 07 2d 00     ..............-.
     8d6:	e8 03 e8 03 e8 03 e8 03 e8 03 e8 03 d0 07 d0 07     ................
     8e6:	d0 07 d0 07 2d 00 d0 07 e8 03 e8 03 e8 03 e8 03     ....-...........
     8f6:	e8 03 d0 07 d0 07 d0 07 d0 07 2d 00 d0 07 d0 07     ..........-.....
     906:	d0 07 e8 03 e8 03 e8 03 d0 07 d0 07 d0 07 d0 07     ................
     916:	2d 00 d0 07 d0 07 d0 07 d0 07 d0 07 d0 07 d0 07     -...............
     926:	d0 07 d0 07 d0 07 2d 00 d0 07 e8 03 d0 07 e8 03     ......-.........
     936:	d0 07 d0 07 d0 07 d0 07 d0 07 d0 07 2d 00 d0 07     ............-...
     946:	d0 07 d0 07 d0 07 d0 07 d0 07 d0 07 d0 07 d0 07     ................
     956:	d0 07 2d 00 e8 03 d0 07 e8 03 d0 07 d0 07 d0 07     ..-.............
     966:	d0 07 d0 07 d0 07 d0 07 2d 00 d0 07 d0 07 d0 07     ........-.......
     976:	d0 07 d0 07 d0 07 d0 07 d0 07 d0 07 d0 07 2d 00     ..............-.
     986:	d0 07 d0 07 d0 07 d0 07 d0 07 d0 07 d0 07 e8 03     ................
     996:	d0 07 e8 03 2d 00 d0 07 d0 07 d0 07 d0 07 d0 07     ....-...........
     9a6:	d0 07 e8 03 d0 07 e8 03 d0 07 2d 00 d0 07 d0 07     ..........-.....
     9b6:	d0 07 d0 07 d0 07 d0 07 d0 07 e8 03 d0 07 e8 03     ................
     9c6:	2d 00 d0 07 d0 07 d0 07 d0 07 d0 07 d0 07 d0 07     -...............
     9d6:	d0 07 d0 07 d0 07 2d 00 d0 07 d0 07 d0 07 d0 07     ......-.........
     9e6:	d0 07 d0 07 e8 03 e8 03 e8 03 e8 03 2d 00 d0 07     ............-...
     9f6:	d0 07 d0 07 d0 07 d0 07 d0 07 d0 07 e8 03 d0 07     ................
     a06:	e8 03 2d 00 d0 07 d0 07 d0 07 d0 07 d0 07 d0 07     ..-.............
     a16:	e8 03 d0 07 e8 03 d0 07 2d 00 d0 07 d0 07 d0 07     ........-.......
     a26:	d0 07 d0 07 d0 07 d0 07 e8 03 d0 07 e8 03 2d 00     ..............-.
     a36:	d0 07 d0 07 d0 07 d0 07 d0 07 d0 07 e8 03 d0 07     ................
     a46:	e8 03 d0 07 2d 00 d0 07 d0 07 d0 07 d0 07 d0 07     ....-...........
     a56:	d0 07 d0 07 e8 03 d0 07 e8 03 2d 00 e8 03 d0 07     ..........-.....
     a66:	e8 03 d0 07 e8 03 d0 07 e8 03 d0 07 e8 03 d0 07     ................
     a76:	2d 00 d0 07 d0 07 d0 07 d0 07 d0 07 d0 07 d0 07     -...............
     a86:	d0 07 d0 07 d0 07 2d 00 d0 07 d0 07 d0 07 d0 07     ......-.........
     a96:	d0 07 d0 07 e8 03 d0 07 e8 03 d0 07 2d 00 d0 07     ............-...
     aa6:	d0 07 d0 07 d0 07 d0 07 d0 07 d0 07 e8 03 d0 07     ................
     ab6:	e8 03 2d 00 d0 07 d0 07 d0 07 d0 07 d0 07 d0 07     ..-.............
     ac6:	e8 03 d0 07 e8 03 d0 07 2d 00 d0 07 d0 07 d0 07     ........-.......
     ad6:	d0 07 d0 07 d0 07 d0 07 e8 03 d0 07 e8 03 2d 00     ..............-.
     ae6:	e8 03 d0 07 e8 03 d0 07 e8 03 d0 07 e8 03 d0 07     ................
     af6:	e8 03 d0 07 2d 00 d0 07 e8 03 d0 07 e8 03 d0 07     ....-...........
     b06:	e8 03 d0 07 e8 03 d0 07 e8 03 2d 00 e8 03 d0 07     ..........-.....
     b16:	e8 03 d0 07 e8 03 d0 07 e8 03 d0 07 e8 03 d0 07     ................
     b26:	2d 00 d0 07 d0 07 d0 07 d0 07 d0 07 d0 07 d0 07     -...............
     b36:	d0 07 d0 07 d0 07 2d 00 e8 03 e8 03 d0 07 d0 07     ......-.........
     b46:	d0 07 d0 07 d0 07 d0 07 d0 07 d0 07 2d 00 d0 07     ............-...
     b56:	d0 07 e8 03 e8 03 d0 07 d0 07 d0 07 d0 07 d0 07     ................
     b66:	d0 07 2d 00 d0 07 d0 07 d0 07 d0 07 e8 03 e8 03     ..-.............
     b76:	d0 07 d0 07 d0 07 d0 07 2d 00 d0 07 d0 07 d0 07     ........-.......
     b86:	d0 07 d0 07 d0 07 d0 07 d0 07 d0 07 d0 07 2d 00     ..............-.
     b96:	e8 03 e8 03 d0 07 d0 07 e8 03 e8 03 d0 07 d0 07     ................
     ba6:	e8 03 e8 03 2d 00 d0 07 d0 07 e8 03 e8 03 d0 07     ....-...........
     bb6:	d0 07 e8 03 e8 03 d0 07 d0 07 2d 00 e8 03 e8 03     ..........-.....
     bc6:	d0 07 d0 07 e8 03 e8 03 d0 07 d0 07 e8 03 e8 03     ................
     bd6:	2d 00 d0 07 d0 07 d0 07 d0 07 d0 07 d0 07 d0 07     -...............
     be6:	d0 07 d0 07 d0 07 2d 00 e8 03 d0 07 d0 07 d0 07     ......-.........
     bf6:	d0 07 d0 07 d0 07 d0 07 d0 07 d0 07 2d 00 d0 07     ............-...
     c06:	d0 07 d0 07 d0 07 d0 07 d0 07 d0 07 d0 07 d0 07     ................
     c16:	d0 07 2d 00 d0 07 e8 03 d0 07 d0 07 d0 07 d0 07     ..-.............
     c26:	d0 07 d0 07 d0 07 d0 07 2d 00 d0 07 d0 07 d0 07     ........-.......
     c36:	d0 07 d0 07 d0 07 d0 07 d0 07 d0 07 d0 07 2d 00     ..............-.
     c46:	e8 03 e8 03 e8 03 d0 07 d0 07 d0 07 d0 07 d0 07     ................
     c56:	d0 07 d0 07 2d 00 d0 07 e8 03 e8 03 d0 07 d0 07     ....-...........
     c66:	d0 07 d0 07 d0 07 d0 07 d0 07 2d 00 d0 07 d0 07     ..........-.....
     c76:	e8 03 d0 07 d0 07 d0 07 d0 07 d0 07 d0 07 d0 07     ................
     c86:	2d 00 d0 07 d0 07 d0 07 d0 07 d0 07 d0 07 d0 07     -...............
     c96:	d0 07 d0 07 d0 07 2d 00 d0 07 d0 07 d0 07 d0 07     ......-.........
     ca6:	d0 07 d0 07 e8 03 d0 07 e8 03 d0 07 2d 00 d0 07     ............-...
     cb6:	d0 07 d0 07 d0 07 d0 07 d0 07 d0 07 d0 07 d0 07     ................
     cc6:	d0 07 2d 00 d0 07 d0 07 d0 07 d0 07 d0 07 d0 07     ..-.............
     cd6:	d0 07 e8 03 d0 07 e8 03 2d 00 d0 07 d0 07 d0 07     ........-.......
     ce6:	d0 07 d0 07 d0 07 d0 07 d0 07 d0 07 d0 07 2d 00     ..............-.
     cf6:	d0 07 d0 07 d0 07 d0 07 d0 07 d0 07 e8 03 d0 07     ................
     d06:	e8 03 d0 07 2d 00 d0 07 d0 07 d0 07 d0 07 d0 07     ....-...........
     d16:	d0 07 d0 07 e8 03 d0 07 e8 03 2d 00 d0 07 d0 07     ..........-.....
     d26:	d0 07 d0 07 d0 07 d0 07 e8 03 d0 07 e8 03 d0 07     ................
     d36:	2d 00 d0 07 d0 07 d0 07 d0 07 d0 07 d0 07 d0 07     -...............
     d46:	d0 07 d0 07 d0 07 2d 00 e8 03 d0 07 e8 03 d0 07     ......-.........
     d56:	e8 03 d0 07 e8 03 d0 07 e8 03 d0 07 2d 00 d0 07     ............-...
     d66:	d0 07 d0 07 d0 07 d0 07 d0 07 d0 07 d0 07 d0 07     ................
     d76:	d0 07 2d 00 d0 07 e8 03 d0 07 e8 03 d0 07 e8 03     ..-.............
     d86:	d0 07 e8 03 d0 07 e8 03 2d 00 d0 07 d0 07 d0 07     ........-.......
     d96:	d0 07 d0 07 d0 07 d0 07 d0 07 d0 07 d0 07 2d 00     ..............-.
     da6:	e8 03 e8 03 e8 03 e8 03 e8 03 e8 03 e8 03 e8 03     ................
     db6:	e8 03 e8 03 2d 00 d0 07 d0 07 d0 07 d0 07 d0 07     ....-...........
     dc6:	d0 07 e8 03 e8 03 e8 03 e8 03 2d 00 e8 03 e8 03     ..........-.....
     dd6:	e8 03 e8 03 e8 03 e8 03 d0 07 d0 07 d0 07 d0 07     ................
     de6:	2d 00 d0 07 d0 07 d0 07 d0 07 d0 07 d0 07 d0 07     -...............
     df6:	d0 07 d0 07 d0 07 00 00 ff ff ff ff ff ff ff ff     ................
     e06:	ff ff ff ff ff ff ff ff ff ff ff ff                 ............

00000e12 <panel_marching_ants>:
     e12:	14 00 d0 07 d0 07 d0 07 d0 07 d0 07 d0 07 d0 07     ................
     e22:	d0 07 d0 07 d0 07 32 00 e8 03 d0 07 e8 03 d0 07     ......2.........
     e32:	e8 03 d0 07 e8 03 d0 07 e8 03 d0 07 32 00 d0 07     ............2...
     e42:	e8 03 d0 07 e8 03 d0 07 e8 03 d0 07 e8 03 d0 07     ................
     e52:	e8 03 32 00 e8 03 d0 07 e8 03 d0 07 e8 03 d0 07     ..2.............
     e62:	e8 03 d0 07 e8 03 d0 07 32 00 d0 07 e8 03 d0 07     ........2.......
     e72:	e8 03 d0 07 e8 03 d0 07 e8 03 d0 07 e8 03 32 00     ..............2.
     e82:	e8 03 d0 07 e8 03 d0 07 e8 03 d0 07 e8 03 d0 07     ................
     e92:	e8 03 d0 07 32 00 d0 07 e8 03 d0 07 e8 03 d0 07     ....2...........
     ea2:	e8 03 d0 07 e8 03 d0 07 e8 03 32 00 e8 03 d0 07     ..........2.....
     eb2:	e8 03 d0 07 e8 03 d0 07 e8 03 d0 07 e8 03 d0 07     ................
     ec2:	32 00 d0 07 e8 03 d0 07 e8 03 d0 07 e8 03 d0 07     2...............
     ed2:	e8 03 d0 07 e8 03 32 00 e8 03 d0 07 e8 03 d0 07     ......2.........
     ee2:	e8 03 d0 07 e8 03 d0 07 e8 03 d0 07 32 00 d0 07     ............2...
     ef2:	e8 03 d0 07 e8 03 d0 07 e8 03 d0 07 e8 03 d0 07     ................
     f02:	e8 03 32 00 e8 03 d0 07 e8 03 d0 07 e8 03 d0 07     ..2.............
     f12:	e8 03 d0 07 e8 03 d0 07 32 00 d0 07 e8 03 d0 07     ........2.......
     f22:	e8 03 d0 07 e8 03 d0 07 e8 03 d0 07 e8 03 32 00     ..............2.
     f32:	e8 03 d0 07 e8 03 d0 07 e8 03 d0 07 e8 03 d0 07     ................
     f42:	e8 03 d0 07 32 00 d0 07 e8 03 d0 07 e8 03 d0 07     ....2...........
     f52:	e8 03 d0 07 e8 03 d0 07 e8 03 32 00 e8 03 d0 07     ..........2.....
     f62:	e8 03 d0 07 e8 03 d0 07 e8 03 d0 07 e8 03 d0 07     ................
     f72:	32 00 d0 07 e8 03 d0 07 e8 03 d0 07 e8 03 d0 07     2...............
     f82:	e8 03 d0 07 e8 03 32 00 e8 03 d0 07 e8 03 d0 07     ......2.........
     f92:	e8 03 d0 07 e8 03 d0 07 e8 03 d0 07 32 00 d0 07     ............2...
     fa2:	e8 03 d0 07 e8 03 d0 07 e8 03 d0 07 e8 03 d0 07     ................
     fb2:	e8 03 32 00 e8 03 d0 07 e8 03 d0 07 e8 03 d0 07     ..2.............
     fc2:	e8 03 d0 07 e8 03 d0 07 32 00 d0 07 e8 03 d0 07     ........2.......
     fd2:	e8 03 d0 07 e8 03 d0 07 e8 03 d0 07 e8 03 32 00     ..............2.
     fe2:	e8 03 d0 07 e8 03 d0 07 e8 03 d0 07 e8 03 d0 07     ................
     ff2:	e8 03 d0 07 32 00 d0 07 e8 03 d0 07 e8 03 d0 07     ....2...........
    1002:	e8 03 d0 07 e8 03 d0 07 e8 03 32 00 e8 03 d0 07     ..........2.....
    1012:	e8 03 d0 07 e8 03 d0 07 e8 03 d0 07 e8 03 d0 07     ................
    1022:	32 00 d0 07 e8 03 d0 07 e8 03 d0 07 e8 03 d0 07     2...............
    1032:	e8 03 d0 07 e8 03 32 00 e8 03 d0 07 e8 03 d0 07     ......2.........
    1042:	e8 03 d0 07 e8 03 d0 07 e8 03 d0 07 32 00 d0 07     ............2...
    1052:	e8 03 d0 07 e8 03 d0 07 e8 03 d0 07 e8 03 d0 07     ................
    1062:	e8 03 32 00 e8 03 d0 07 e8 03 d0 07 e8 03 d0 07     ..2.............
    1072:	e8 03 d0 07 e8 03 d0 07 32 00 d0 07 e8 03 d0 07     ........2.......
    1082:	e8 03 d0 07 e8 03 d0 07 e8 03 d0 07 e8 03 32 00     ..............2.
    1092:	e8 03 d0 07 e8 03 d0 07 e8 03 d0 07 e8 03 d0 07     ................
    10a2:	e8 03 d0 07 32 00 d0 07 e8 03 d0 07 e8 03 d0 07     ....2...........
    10b2:	e8 03 d0 07 e8 03 d0 07 e8 03 64 00 d0 07 d0 07     ..........d.....
    10c2:	d0 07 d0 07 d0 07 d0 07 d0 07 d0 07 d0 07 d0 07     ................
    10d2:	00 00 ff ff ff ff ff ff ff ff ff ff ff ff ff ff     ................
    10e2:	ff ff ff ff ff ff                                   ......

000010e8 <panel_open_close_wave>:
    10e8:	14 00 d0 07 d0 07 d0 07 d0 07 d0 07 d0 07 d0 07     ................
    10f8:	d0 07 d0 07 d0 07 14 00 e8 03 d0 07 d0 07 d0 07     ................
    1108:	d0 07 d0 07 d0 07 d0 07 d0 07 d0 07 14 00 e8 03     ................
    1118:	e8 03 d0 07 d0 07 d0 07 d0 07 d0 07 d0 07 d0 07     ................
    1128:	d0 07 14 00 e8 03 e8 03 e8 03 d0 07 d0 07 d0 07     ................
    1138:	d0 07 d0 07 d0 07 d0 07 14 00 e8 03 e8 03 e8 03     ................
    1148:	e8 03 d0 07 d0 07 d0 07 d0 07 d0 07 d0 07 14 00     ................
    1158:	e8 03 e8 03 e8 03 e8 03 e8 03 d0 07 d0 07 d0 07     ................
    1168:	d0 07 d0 07 14 00 e8 03 e8 03 e8 03 e8 03 e8 03     ................
    1178:	e8 03 d0 07 d0 07 d0 07 d0 07 14 00 e8 03 e8 03     ................
    1188:	e8 03 e8 03 e8 03 e8 03 e8 03 d0 07 d0 07 d0 07     ................
    1198:	14 00 e8 03 e8 03 e8 03 e8 03 e8 03 e8 03 e8 03     ................
    11a8:	e8 03 d0 07 d0 07 14 00 e8 03 e8 03 e8 03 e8 03     ................
    11b8:	e8 03 e8 03 e8 03 e8 03 e8 03 d0 07 50 00 e8 03     ............P...
    11c8:	e8 03 e8 03 e8 03 e8 03 e8 03 e8 03 e8 03 e8 03     ................
    11d8:	e8 03 14 00 d0 07 e8 03 e8 03 e8 03 e8 03 e8 03     ................
    11e8:	e8 03 e8 03 e8 03 e8 03 14 00 d0 07 d0 07 e8 03     ................
    11f8:	e8 03 e8 03 e8 03 e8 03 e8 03 e8 03 e8 03 14 00     ................
    1208:	d0 07 d0 07 d0 07 e8 03 e8 03 e8 03 e8 03 e8 03     ................
    1218:	e8 03 e8 03 14 00 d0 07 d0 07 d0 07 d0 07 e8 03     ................
    1228:	e8 03 e8 03 e8 03 e8 03 e8 03 14 00 d0 07 d0 07     ................
    1238:	d0 07 d0 07 d0 07 e8 03 e8 03 e8 03 e8 03 e8 03     ................
    1248:	14 00 d0 07 d0 07 d0 07 d0 07 d0 07 d0 07 e8 03     ................
    1258:	e8 03 e8 03 e8 03 14 00 d0 07 d0 07 d0 07 d0 07     ................
    1268:	d0 07 d0 07 d0 07 e8 03 e8 03 e8 03 14 00 d0 07     ................
    1278:	d0 07 d0 07 d0 07 d0 07 d0 07 d0 07 d0 07 e8 03     ................
    1288:	e8 03 14 00 d0 07 d0 07 d0 07 d0 07 d0 07 d0 07     ................
    1298:	d0 07 d0 07 d0 07 e8 03 28 00 d0 07 d0 07 d0 07     ........(.......
    12a8:	d0 07 d0 07 d0 07 d0 07 d0 07 d0 07 d0 07 00 00     ................
    12b8:	ff ff ff ff ff ff ff ff ff ff ff ff ff ff ff ff     ................
    12c8:	ff ff ff ff                                         ....

000012cc <panel_fast_wave>:
    12cc:	0f 00 d0 07 d0 07 d0 07 d0 07 d0 07 d0 07 d0 07     ................
    12dc:	d0 07 d0 07 d0 07 0f 00 e8 03 d0 07 d0 07 d0 07     ................
    12ec:	d0 07 d0 07 d0 07 d0 07 d0 07 d0 07 0f 00 d0 07     ................
    12fc:	e8 03 d0 07 d0 07 d0 07 d0 07 d0 07 d0 07 d0 07     ................
    130c:	d0 07 0f 00 d0 07 d0 07 e8 03 d0 07 d0 07 d0 07     ................
    131c:	d0 07 d0 07 d0 07 d0 07 0f 00 d0 07 d0 07 d0 07     ................
    132c:	e8 03 d0 07 d0 07 d0 07 d0 07 d0 07 d0 07 0f 00     ................
    133c:	d0 07 d0 07 d0 07 d0 07 e8 03 d0 07 d0 07 d0 07     ................
    134c:	d0 07 d0 07 0f 00 d0 07 d0 07 d0 07 d0 07 d0 07     ................
    135c:	e8 03 d0 07 d0 07 d0 07 d0 07 0f 00 d0 07 d0 07     ................
    136c:	d0 07 d0 07 d0 07 d0 07 e8 03 d0 07 d0 07 d0 07     ................
    137c:	0f 00 d0 07 d0 07 d0 07 d0 07 d0 07 d0 07 d0 07     ................
    138c:	e8 03 d0 07 d0 07 0f 00 d0 07 d0 07 d0 07 d0 07     ................
    139c:	d0 07 d0 07 d0 07 d0 07 e8 03 d0 07 0f 00 d0 07     ................
    13ac:	d0 07 d0 07 d0 07 d0 07 d0 07 d0 07 d0 07 d0 07     ................
    13bc:	e8 03 0f 00 d0 07 d0 07 d0 07 d0 07 d0 07 d0 07     ................
    13cc:	d0 07 d0 07 d0 07 d0 07 0f 00 d0 07 d0 07 d0 07     ................
    13dc:	d0 07 d0 07 d0 07 d0 07 d0 07 d0 07 e8 03 0f 00     ................
    13ec:	d0 07 d0 07 d0 07 d0 07 d0 07 d0 07 d0 07 d0 07     ................
    13fc:	e8 03 d0 07 0f 00 d0 07 d0 07 d0 07 d0 07 d0 07     ................
    140c:	d0 07 d0 07 e8 03 d0 07 d0 07 0f 00 d0 07 d0 07     ................
    141c:	d0 07 d0 07 d0 07 d0 07 e8 03 d0 07 d0 07 d0 07     ................
    142c:	0f 00 d0 07 d0 07 d0 07 d0 07 d0 07 e8 03 d0 07     ................
    143c:	d0 07 d0 07 d0 07 0f 00 d0 07 d0 07 d0 07 d0 07     ................
    144c:	e8 03 d0 07 d0 07 d0 07 d0 07 d0 07 0f 00 d0 07     ................
    145c:	d0 07 d0 07 e8 03 d0 07 d0 07 d0 07 d0 07 d0 07     ................
    146c:	d0 07 0f 00 d0 07 d0 07 e8 03 d0 07 d0 07 d0 07     ................
    147c:	d0 07 d0 07 d0 07 d0 07 0f 00 d0 07 e8 03 d0 07     ................
    148c:	d0 07 d0 07 d0 07 d0 07 d0 07 d0 07 d0 07 0f 00     ................
    149c:	e8 03 d0 07 d0 07 d0 07 d0 07 d0 07 d0 07 d0 07     ................
    14ac:	d0 07 d0 07 0f 00 d0 07 d0 07 d0 07 d0 07 d0 07     ................
    14bc:	d0 07 d0 07 d0 07 d0 07 d0 07 00 00 ff ff ff ff     ................
    14cc:	ff ff ff ff ff ff ff ff ff ff ff ff ff ff ff ff     ................

000014dc <panel_wave>:
    14dc:	1e 00 d0 07 d0 07 d0 07 d0 07 d0 07 d0 07 d0 07     ................
    14ec:	d0 07 d0 07 d0 07 1e 00 e8 03 d0 07 d0 07 d0 07     ................
    14fc:	d0 07 d0 07 d0 07 d0 07 d0 07 d0 07 1e 00 d0 07     ................
    150c:	e8 03 d0 07 d0 07 d0 07 d0 07 d0 07 d0 07 d0 07     ................
    151c:	d0 07 1e 00 d0 07 d0 07 e8 03 d0 07 d0 07 d0 07     ................
    152c:	d0 07 d0 07 d0 07 d0 07 1e 00 d0 07 d0 07 d0 07     ................
    153c:	e8 03 d0 07 d0 07 d0 07 d0 07 d0 07 d0 07 1e 00     ................
    154c:	d0 07 d0 07 d0 07 d0 07 e8 03 d0 07 d0 07 d0 07     ................
    155c:	d0 07 d0 07 1e 00 d0 07 d0 07 d0 07 d0 07 d0 07     ................
    156c:	e8 03 d0 07 d0 07 d0 07 d0 07 1e 00 d0 07 d0 07     ................
    157c:	d0 07 d0 07 d0 07 d0 07 e8 03 d0 07 d0 07 d0 07     ................
    158c:	1e 00 d0 07 d0 07 d0 07 d0 07 d0 07 d0 07 d0 07     ................
    159c:	e8 03 d0 07 d0 07 1e 00 d0 07 d0 07 d0 07 d0 07     ................
    15ac:	d0 07 d0 07 d0 07 d0 07 e8 03 d0 07 1e 00 d0 07     ................
    15bc:	d0 07 d0 07 d0 07 d0 07 d0 07 d0 07 d0 07 d0 07     ................
    15cc:	e8 03 1e 00 d0 07 d0 07 d0 07 d0 07 d0 07 d0 07     ................
    15dc:	d0 07 d0 07 d0 07 d0 07 00 00 ff ff ff ff ff ff     ................
    15ec:	ff ff ff ff ff ff ff ff ff ff ff ff ff ff           ..............

000015fa <panel_maxstang_wiggle>:
    15fa:	14 00 d0 07 d0 07 d0 07 d0 07 d0 07 d0 07 d0 07     ................
    160a:	d0 07 d0 07 d0 07 32 00 e8 03 e8 03 e8 03 e8 03     ......2.........
    161a:	e8 03 e8 03 e8 03 e8 03 e8 03 e8 03 14 00 d0 07     ................
    162a:	d0 07 d0 07 d0 07 d0 07 d0 07 d0 07 d0 07 d0 07     ................
    163a:	d0 07 14 00 e8 03 e8 03 e8 03 e8 03 e8 03 e8 03     ................
    164a:	e8 03 e8 03 e8 03 e8 03 14 00 d0 07 d0 07 d0 07     ................
    165a:	d0 07 d0 07 d0 07 d0 07 d0 07 d0 07 d0 07 1e 00     ................
    166a:	e8 03 e8 03 e8 03 e8 03 e8 03 e8 03 e8 03 e8 03     ................
    167a:	e8 03 e8 03 1e 00 d0 07 d0 07 d0 07 d0 07 d0 07     ................
    168a:	d0 07 d0 07 d0 07 d0 07 d0 07 0a 00 e8 03 e8 03     ................
    169a:	e8 03 e8 03 e8 03 e8 03 e8 03 e8 03 e8 03 e8 03     ................
    16aa:	4b 00 d0 07 d0 07 d0 07 d0 07 d0 07 d0 07 d0 07     K...............
    16ba:	d0 07 d0 07 d0 07 00 00 ff ff ff ff ff ff ff ff     ................
    16ca:	ff ff ff ff ff ff ff ff ff ff ff ff                 ............

000016d6 <panel_wave_bye>:
    16d6:	14 00 d0 07 d0 07 d0 07 d0 07 d0 07 d0 07 d0 07     ................
    16e6:	d0 07 d0 07 d0 07 4b 00 e8 03 e8 03 d0 07 d0 07     ......K.........
    16f6:	d0 07 d0 07 d0 07 d0 07 d0 07 d0 07 1e 00 d0 07     ................
    1706:	d0 07 d0 07 d0 07 d0 07 d0 07 d0 07 d0 07 d0 07     ................
    1716:	d0 07 1e 00 e8 03 e8 03 d0 07 d0 07 d0 07 d0 07     ................
    1726:	d0 07 d0 07 d0 07 d0 07 1e 00 d0 07 d0 07 d0 07     ................
    1736:	d0 07 d0 07 d0 07 d0 07 d0 07 d0 07 d0 07 1e 00     ................
    1746:	e8 03 e8 03 d0 07 d0 07 d0 07 d0 07 d0 07 d0 07     ................
    1756:	d0 07 d0 07 64 00 d0 07 d0 07 d0 07 d0 07 d0 07     ....d...........
    1766:	d0 07 d0 07 d0 07 d0 07 d0 07 00 00 ff ff ff ff     ................
    1776:	ff ff ff ff ff ff ff ff ff ff ff ff ff ff ff ff     ................

00001786 <panel_all_open_long>:
    1786:	14 00 d0 07 d0 07 d0 07 d0 07 d0 07 d0 07 d0 07     ................
    1796:	d0 07 d0 07 d0 07 e8 03 e8 03 e8 03 e8 03 e8 03     ................
    17a6:	e8 03 e8 03 e8 03 e8 03 e8 03 e8 03 96 00 d0 07     ................
    17b6:	d0 07 d0 07 d0 07 d0 07 d0 07 d0 07 d0 07 d0 07     ................
    17c6:	d0 07 00 00 ff ff ff ff ff ff ff ff ff ff ff ff     ................
    17d6:	ff ff ff ff ff ff ff ff                             ........

000017de <panel_all_open>:
    17de:	14 00 d0 07 d0 07 d0 07 d0 07 d0 07 d0 07 d0 07     ................
    17ee:	d0 07 d0 07 d0 07 2c 01 e8 03 e8 03 e8 03 e8 03     ......,.........
    17fe:	e8 03 e8 03 e8 03 e8 03 e8 03 e8 03 96 00 d0 07     ................
    180e:	d0 07 d0 07 d0 07 d0 07 d0 07 d0 07 d0 07 d0 07     ................
    181e:	d0 07 00 00 ff ff ff ff ff ff ff ff ff ff ff ff     ................
    182e:	ff ff ff ff ff ff ff ff                             ........

00001836 <suart_delay_table>:
    1836:	00 c2 01 00 01 00 11 00 11 00 0c 00 00 e1 00 00     ................
    1846:	0a 00 25 00 25 00 21 00 00 96 00 00 19 00 39 00     ..%.%.!.......9.
    1856:	39 00 36 00 12 7a 00 00 1f 00 46 00 46 00 44 00     9.6..z....F.F.D.
    1866:	80 70 00 00 22 00 4d 00 4d 00 4a 00 00 4b 00 00     .p..".M.M.J..K..
    1876:	36 00 75 00 75 00 72 00 40 38 00 00 4a 00 9c 00     6.u.u.r.@8..J...
    1886:	9c 00 99 00 80 25 00 00 72 00 ec 00 ec 00 e9 00     .....%..r.......
    1896:	c0 12 00 00 e9 00 da 01 da 01 d7 01 60 09 00 00     ............`...
    18a6:	d7 01 b6 03 b6 03 b3 03 b0 04 00 00 b3 03 6e 07     ..............n.
    18b6:	6e 07 6b 07 2c 01 00 00 dc 0e c1 1d c1 1d be 1d     n.k.,...........

000018c6 <__c.2268>:
    18c6:	63 64 69 6e 6f 70 73 75 78 58 5b 00                 cdinopsuxX[.

000018d2 <__ctors_end>:
    18d2:	11 24       	eor	r1, r1
    18d4:	1f be       	out	0x3f, r1	; 63
    18d6:	cf ef       	ldi	r28, 0xFF	; 255
    18d8:	d8 e0       	ldi	r29, 0x08	; 8
    18da:	de bf       	out	0x3e, r29	; 62
    18dc:	cd bf       	out	0x3d, r28	; 61

000018de <__do_copy_data>:
    18de:	12 e0       	ldi	r17, 0x02	; 2
    18e0:	a0 e0       	ldi	r26, 0x00	; 0
    18e2:	b1 e0       	ldi	r27, 0x01	; 1
    18e4:	ea e4       	ldi	r30, 0x4A	; 74
    18e6:	f2 e5       	ldi	r31, 0x52	; 82
    18e8:	02 c0       	rjmp	.+4      	; 0x18ee <__do_copy_data+0x10>
    18ea:	05 90       	lpm	r0, Z+
    18ec:	0d 92       	st	X+, r0
    18ee:	ae 35       	cpi	r26, 0x5E	; 94
    18f0:	b1 07       	cpc	r27, r17
    18f2:	d9 f7       	brne	.-10     	; 0x18ea <__do_copy_data+0xc>

000018f4 <__do_clear_bss>:
    18f4:	24 e0       	ldi	r18, 0x04	; 4
    18f6:	ae e5       	ldi	r26, 0x5E	; 94
    18f8:	b2 e0       	ldi	r27, 0x02	; 2
    18fa:	01 c0       	rjmp	.+2      	; 0x18fe <.do_clear_bss_start>

000018fc <.do_clear_bss_loop>:
    18fc:	1d 92       	st	X+, r1

000018fe <.do_clear_bss_start>:
    18fe:	a1 3f       	cpi	r26, 0xF1	; 241
    1900:	b2 07       	cpc	r27, r18
    1902:	e1 f7       	brne	.-8      	; 0x18fc <.do_clear_bss_loop>
    1904:	0e 94 e2 17 	call	0x2fc4	; 0x2fc4 <main>
    1908:	0c 94 23 29 	jmp	0x5246	; 0x5246 <_exit>

0000190c <__bad_interrupt>:
    190c:	0c 94 00 00 	jmp	0	; 0x0 <__vectors>

00001910 <mp3_sound.part.0>:
    1910:	cf 93       	push	r28
    1912:	88 23       	and	r24, r24
    1914:	91 f1       	breq	.+100    	; 0x197a <mp3_sound.part.0+0x6a>
    1916:	28 2f       	mov	r18, r24
    1918:	30 e0       	ldi	r19, 0x00	; 0
    191a:	66 23       	and	r22, r22
    191c:	a1 f0       	breq	.+40     	; 0x1946 <mp3_sound.part.0+0x36>
    191e:	c9 01       	movw	r24, r18
    1920:	01 97       	sbiw	r24, 0x01	; 1
    1922:	c6 2f       	mov	r28, r22
    1924:	49 e1       	ldi	r20, 0x19	; 25
    1926:	84 9f       	mul	r24, r20
    1928:	c0 0d       	add	r28, r0
    192a:	11 24       	eor	r1, r1
    192c:	f9 01       	movw	r30, r18
    192e:	eb 5b       	subi	r30, 0xBB	; 187
    1930:	fe 4f       	sbci	r31, 0xFE	; 254
    1932:	80 81       	ld	r24, Z
    1934:	f9 01       	movw	r30, r18
    1936:	ee 59       	subi	r30, 0x9E	; 158
    1938:	fd 4f       	sbci	r31, 0xFD	; 253
    193a:	86 17       	cp	r24, r22
    193c:	10 f4       	brcc	.+4      	; 0x1942 <mp3_sound.part.0+0x32>
    193e:	80 83       	st	Z, r24
    1940:	1d c0       	rjmp	.+58     	; 0x197c <mp3_sound.part.0+0x6c>
    1942:	60 83       	st	Z, r22
    1944:	1b c0       	rjmp	.+54     	; 0x197c <mp3_sound.part.0+0x6c>
    1946:	85 30       	cpi	r24, 0x05	; 5
    1948:	80 f4       	brcc	.+32     	; 0x196a <mp3_sound.part.0+0x5a>
    194a:	f9 01       	movw	r30, r18
    194c:	ee 59       	subi	r30, 0x9E	; 158
    194e:	fd 4f       	sbci	r31, 0xFD	; 253
    1950:	80 81       	ld	r24, Z
    1952:	8f 5f       	subi	r24, 0xFF	; 255
    1954:	80 83       	st	Z, r24
    1956:	d9 01       	movw	r26, r18
    1958:	ab 5b       	subi	r26, 0xBB	; 187
    195a:	be 4f       	sbci	r27, 0xFE	; 254
    195c:	9c 91       	ld	r25, X
    195e:	98 17       	cp	r25, r24
    1960:	10 f4       	brcc	.+4      	; 0x1966 <mp3_sound.part.0+0x56>
    1962:	81 e0       	ldi	r24, 0x01	; 1
    1964:	80 83       	st	Z, r24
    1966:	c0 81       	ld	r28, Z
    1968:	01 c0       	rjmp	.+2      	; 0x196c <mp3_sound.part.0+0x5c>
    196a:	c1 e0       	ldi	r28, 0x01	; 1
    196c:	21 50       	subi	r18, 0x01	; 1
    196e:	31 09       	sbc	r19, r1
    1970:	89 e1       	ldi	r24, 0x19	; 25
    1972:	28 9f       	mul	r18, r24
    1974:	c0 0d       	add	r28, r0
    1976:	11 24       	eor	r1, r1
    1978:	01 c0       	rjmp	.+2      	; 0x197c <mp3_sound.part.0+0x6c>
    197a:	c6 2f       	mov	r28, r22
    197c:	84 e7       	ldi	r24, 0x74	; 116
    197e:	0e 94 2b 20 	call	0x4056	; 0x4056 <suart2_putc>
    1982:	8c 2f       	mov	r24, r28
    1984:	cf 91       	pop	r28
    1986:	0c 94 2b 20 	jmp	0x4056	; 0x4056 <suart2_putc>

0000198a <mp3_start_random>:
    198a:	10 92 b0 02 	sts	0x02B0, r1
    198e:	10 92 af 02 	sts	0x02AF, r1
    1992:	81 e0       	ldi	r24, 0x01	; 1
    1994:	80 93 60 02 	sts	0x0260, r24
    1998:	08 95       	ret

0000199a <mp3_stop_random>:
    199a:	10 92 60 02 	sts	0x0260, r1
    199e:	10 92 b0 02 	sts	0x02B0, r1
    19a2:	10 92 af 02 	sts	0x02AF, r1
    19a6:	08 95       	ret

000019a8 <mp3_suspend_random>:
    19a8:	80 eb       	ldi	r24, 0xB0	; 176
    19aa:	94 e0       	ldi	r25, 0x04	; 4
    19ac:	90 93 b0 02 	sts	0x02B0, r25
    19b0:	80 93 af 02 	sts	0x02AF, r24
    19b4:	80 91 60 02 	lds	r24, 0x0260
    19b8:	80 93 61 02 	sts	0x0261, r24
    19bc:	10 92 60 02 	sts	0x0260, r1
    19c0:	08 95       	ret

000019c2 <mp3_resume_random>:
    19c2:	80 91 61 02 	lds	r24, 0x0261
    19c6:	80 93 60 02 	sts	0x0260, r24
    19ca:	08 95       	ret

000019cc <mp3_send_command_byte>:
    19cc:	0c 94 2b 20 	jmp	0x4056	; 0x4056 <suart2_putc>

000019d0 <mp3_sound>:
    19d0:	8a 30       	cpi	r24, 0x0A	; 10
    19d2:	30 f4       	brcc	.+12     	; 0x19e0 <mp3_sound+0x10>
    19d4:	88 23       	and	r24, r24
    19d6:	11 f0       	breq	.+4      	; 0x19dc <mp3_sound+0xc>
    19d8:	6a 31       	cpi	r22, 0x1A	; 26
    19da:	10 f4       	brcc	.+4      	; 0x19e0 <mp3_sound+0x10>
    19dc:	0c 94 88 0c 	jmp	0x1910	; 0x1910 <mp3_sound.part.0>
    19e0:	08 95       	ret

000019e2 <mp3_random>:
    19e2:	23 e3       	ldi	r18, 0x33	; 51
    19e4:	30 e0       	ldi	r19, 0x00	; 0
    19e6:	40 e0       	ldi	r20, 0x00	; 0
    19e8:	50 e0       	ldi	r21, 0x00	; 0
    19ea:	61 e0       	ldi	r22, 0x01	; 1
    19ec:	70 e0       	ldi	r23, 0x00	; 0
    19ee:	80 e0       	ldi	r24, 0x00	; 0
    19f0:	90 e0       	ldi	r25, 0x00	; 0
    19f2:	0e 94 b8 20 	call	0x4170	; 0x4170 <random_howsmall_howbig>
    19f6:	86 2f       	mov	r24, r22
    19f8:	64 31       	cpi	r22, 0x14	; 20
    19fa:	10 f4       	brcc	.+4      	; 0x1a00 <mp3_random+0x1e>
    19fc:	81 e0       	ldi	r24, 0x01	; 1
    19fe:	17 c0       	rjmp	.+46     	; 0x1a2e <mp3_random+0x4c>
    1a00:	6d ee       	ldi	r22, 0xED	; 237
    1a02:	68 0f       	add	r22, r24
    1a04:	63 31       	cpi	r22, 0x13	; 19
    1a06:	10 f4       	brcc	.+4      	; 0x1a0c <mp3_random+0x2a>
    1a08:	82 e0       	ldi	r24, 0x02	; 2
    1a0a:	11 c0       	rjmp	.+34     	; 0x1a2e <mp3_random+0x4c>
    1a0c:	6b ed       	ldi	r22, 0xDB	; 219
    1a0e:	68 0f       	add	r22, r24
    1a10:	68 30       	cpi	r22, 0x08	; 8
    1a12:	10 f4       	brcc	.+4      	; 0x1a18 <mp3_random+0x36>
    1a14:	83 e0       	ldi	r24, 0x03	; 3
    1a16:	0b c0       	rjmp	.+22     	; 0x1a2e <mp3_random+0x4c>
    1a18:	64 ed       	ldi	r22, 0xD4	; 212
    1a1a:	68 0f       	add	r22, r24
    1a1c:	65 30       	cpi	r22, 0x05	; 5
    1a1e:	10 f4       	brcc	.+4      	; 0x1a24 <mp3_random+0x42>
    1a20:	84 e0       	ldi	r24, 0x04	; 4
    1a22:	05 c0       	rjmp	.+10     	; 0x1a2e <mp3_random+0x4c>
    1a24:	60 ed       	ldi	r22, 0xD0	; 208
    1a26:	68 0f       	add	r22, r24
    1a28:	64 30       	cpi	r22, 0x04	; 4
    1a2a:	18 f4       	brcc	.+6      	; 0x1a32 <mp3_random+0x50>
    1a2c:	85 e0       	ldi	r24, 0x05	; 5
    1a2e:	0c 94 e8 0c 	jmp	0x19d0	; 0x19d0 <mp3_sound>
    1a32:	08 95       	ret

00001a34 <mp3_do_random>:
    1a34:	80 91 60 02 	lds	r24, 0x0260
    1a38:	88 23       	and	r24, r24
    1a3a:	e1 f0       	breq	.+56     	; 0x1a74 <mp3_do_random+0x40>
    1a3c:	80 91 af 02 	lds	r24, 0x02AF
    1a40:	90 91 b0 02 	lds	r25, 0x02B0
    1a44:	89 2b       	or	r24, r25
    1a46:	b1 f4       	brne	.+44     	; 0x1a74 <mp3_do_random+0x40>
    1a48:	80 91 af 02 	lds	r24, 0x02AF
    1a4c:	90 91 b0 02 	lds	r25, 0x02B0
    1a50:	89 2b       	or	r24, r25
    1a52:	81 f4       	brne	.+32     	; 0x1a74 <mp3_do_random+0x40>
    1a54:	0e 94 f1 0c 	call	0x19e2	; 0x19e2 <mp3_random>
    1a58:	28 ee       	ldi	r18, 0xE8	; 232
    1a5a:	33 e0       	ldi	r19, 0x03	; 3
    1a5c:	40 e0       	ldi	r20, 0x00	; 0
    1a5e:	50 e0       	ldi	r21, 0x00	; 0
    1a60:	68 e5       	ldi	r22, 0x58	; 88
    1a62:	72 e0       	ldi	r23, 0x02	; 2
    1a64:	80 e0       	ldi	r24, 0x00	; 0
    1a66:	90 e0       	ldi	r25, 0x00	; 0
    1a68:	0e 94 b8 20 	call	0x4170	; 0x4170 <random_howsmall_howbig>
    1a6c:	70 93 b0 02 	sts	0x02B0, r23
    1a70:	60 93 af 02 	sts	0x02AF, r22
    1a74:	08 95       	ret

00001a76 <mp3_playstartsound>:
    1a76:	6f ef       	ldi	r22, 0xFF	; 255
    1a78:	80 e0       	ldi	r24, 0x00	; 0
    1a7a:	0c 94 88 0c 	jmp	0x1910	; 0x1910 <mp3_sound.part.0>

00001a7e <mp3_stop>:
    1a7e:	6e ef       	ldi	r22, 0xFE	; 254
    1a80:	80 e0       	ldi	r24, 0x00	; 0
    1a82:	0c 94 88 0c 	jmp	0x1910	; 0x1910 <mp3_sound.part.0>

00001a86 <mp3_setvolume>:
    1a86:	cf 93       	push	r28
    1a88:	c8 2f       	mov	r28, r24
    1a8a:	86 e7       	ldi	r24, 0x76	; 118
    1a8c:	0e 94 2b 20 	call	0x4056	; 0x4056 <suart2_putc>
    1a90:	8c 2f       	mov	r24, r28
    1a92:	cf 91       	pop	r28
    1a94:	0c 94 2b 20 	jmp	0x4056	; 0x4056 <suart2_putc>

00001a98 <mp3_volumeup>:
    1a98:	80 91 08 01 	lds	r24, 0x0108
    1a9c:	85 50       	subi	r24, 0x05	; 5
    1a9e:	8b 3f       	cpi	r24, 0xFB	; 251
    1aa0:	18 f0       	brcs	.+6      	; 0x1aa8 <mp3_volumeup+0x10>
    1aa2:	10 92 08 01 	sts	0x0108, r1
    1aa6:	02 c0       	rjmp	.+4      	; 0x1aac <mp3_volumeup+0x14>
    1aa8:	80 93 08 01 	sts	0x0108, r24
    1aac:	80 91 08 01 	lds	r24, 0x0108
    1ab0:	0c 94 43 0d 	jmp	0x1a86	; 0x1a86 <mp3_setvolume>

00001ab4 <mp3_volumedown>:
    1ab4:	20 91 08 01 	lds	r18, 0x0108
    1ab8:	25 36       	cpi	r18, 0x65	; 101
    1aba:	20 f0       	brcs	.+8      	; 0x1ac4 <mp3_volumedown+0x10>
    1abc:	84 e6       	ldi	r24, 0x64	; 100
    1abe:	80 93 08 01 	sts	0x0108, r24
    1ac2:	09 c0       	rjmp	.+18     	; 0x1ad6 <mp3_volumedown+0x22>
    1ac4:	84 e6       	ldi	r24, 0x64	; 100
    1ac6:	90 e0       	ldi	r25, 0x00	; 0
    1ac8:	82 1b       	sub	r24, r18
    1aca:	91 09       	sbc	r25, r1
    1acc:	05 97       	sbiw	r24, 0x05	; 5
    1ace:	b4 f3       	brlt	.-20     	; 0x1abc <mp3_volumedown+0x8>
    1ad0:	2b 5f       	subi	r18, 0xFB	; 251
    1ad2:	20 93 08 01 	sts	0x0108, r18
    1ad6:	80 91 08 01 	lds	r24, 0x0108
    1ada:	0c 94 43 0d 	jmp	0x1a86	; 0x1a86 <mp3_setvolume>

00001ade <mp3_volumemid>:
    1ade:	82 e3       	ldi	r24, 0x32	; 50
    1ae0:	80 93 08 01 	sts	0x0108, r24
    1ae4:	0c 94 43 0d 	jmp	0x1a86	; 0x1a86 <mp3_setvolume>

00001ae8 <mp3_init>:
    1ae8:	e2 e6       	ldi	r30, 0x62	; 98
    1aea:	f2 e0       	ldi	r31, 0x02	; 2
    1aec:	11 92       	st	Z+, r1
    1aee:	82 e0       	ldi	r24, 0x02	; 2
    1af0:	eb 36       	cpi	r30, 0x6B	; 107
    1af2:	f8 07       	cpc	r31, r24
    1af4:	d9 f7       	brne	.-10     	; 0x1aec <mp3_init+0x4>
    1af6:	0e 94 6f 0d 	call	0x1ade	; 0x1ade <mp3_volumemid>
    1afa:	0e 94 3b 0d 	call	0x1a76	; 0x1a76 <mp3_playstartsound>
    1afe:	8f ea       	ldi	r24, 0xAF	; 175
    1b00:	92 e0       	ldi	r25, 0x02	; 2
    1b02:	0c 94 ba 18 	jmp	0x3174	; 0x3174 <rt_add_timer>

00001b06 <mp3_volumeoff>:
    1b06:	8e ef       	ldi	r24, 0xFE	; 254
    1b08:	80 93 08 01 	sts	0x0108, r24
    1b0c:	0c 94 43 0d 	jmp	0x1a86	; 0x1a86 <mp3_setvolume>

00001b10 <mp3_volumemax>:
    1b10:	10 92 08 01 	sts	0x0108, r1
    1b14:	80 e0       	ldi	r24, 0x00	; 0
    1b16:	0c 94 43 0d 	jmp	0x1a86	; 0x1a86 <mp3_setvolume>

00001b1a <mp3_volumemin>:
    1b1a:	84 e6       	ldi	r24, 0x64	; 100
    1b1c:	80 93 08 01 	sts	0x0108, r24
    1b20:	0c 94 43 0d 	jmp	0x1a86	; 0x1a86 <mp3_setvolume>

00001b24 <mp3_parse_command>:
    1b24:	0f 93       	push	r16
    1b26:	1f 93       	push	r17
    1b28:	cf 93       	push	r28
    1b2a:	df 93       	push	r29
    1b2c:	ec 01       	movw	r28, r24
    1b2e:	fc 01       	movw	r30, r24
    1b30:	01 90       	ld	r0, Z+
    1b32:	00 20       	and	r0, r0
    1b34:	e9 f7       	brne	.-6      	; 0x1b30 <mp3_parse_command+0xc>
    1b36:	31 97       	sbiw	r30, 0x01	; 1
    1b38:	e8 1b       	sub	r30, r24
    1b3a:	f9 0b       	sbc	r31, r25
    1b3c:	88 81       	ld	r24, Y
    1b3e:	84 32       	cpi	r24, 0x24	; 36
    1b40:	09 f0       	breq	.+2      	; 0x1b44 <mp3_parse_command+0x20>
    1b42:	ce c0       	rjmp	.+412    	; 0x1ce0 <mp3_parse_command+0x1bc>
    1b44:	0e 2f       	mov	r16, r30
    1b46:	e2 50       	subi	r30, 0x02	; 2
    1b48:	e3 30       	cpi	r30, 0x03	; 3
    1b4a:	08 f0       	brcs	.+2      	; 0x1b4e <mp3_parse_command+0x2a>
    1b4c:	c9 c0       	rjmp	.+402    	; 0x1ce0 <mp3_parse_command+0x1bc>
    1b4e:	19 81       	ldd	r17, Y+1	; 0x01
    1b50:	21 2f       	mov	r18, r17
    1b52:	30 e0       	ldi	r19, 0x00	; 0
    1b54:	20 53       	subi	r18, 0x30	; 48
    1b56:	31 09       	sbc	r19, r1
    1b58:	2a 30       	cpi	r18, 0x0A	; 10
    1b5a:	31 05       	cpc	r19, r1
    1b5c:	98 f4       	brcc	.+38     	; 0x1b84 <mp3_parse_command+0x60>
    1b5e:	0e 94 cd 0c 	call	0x199a	; 0x199a <mp3_stop_random>
    1b62:	10 53       	subi	r17, 0x30	; 48
    1b64:	02 30       	cpi	r16, 0x02	; 2
    1b66:	31 f0       	breq	.+12     	; 0x1b74 <mp3_parse_command+0x50>
    1b68:	ce 01       	movw	r24, r28
    1b6a:	02 96       	adiw	r24, 0x02	; 2
    1b6c:	0e 94 ad 22 	call	0x455a	; 0x455a <atoi>
    1b70:	68 2f       	mov	r22, r24
    1b72:	01 c0       	rjmp	.+2      	; 0x1b76 <mp3_parse_command+0x52>
    1b74:	60 e0       	ldi	r22, 0x00	; 0
    1b76:	81 2f       	mov	r24, r17
    1b78:	df 91       	pop	r29
    1b7a:	cf 91       	pop	r28
    1b7c:	1f 91       	pop	r17
    1b7e:	0f 91       	pop	r16
    1b80:	0c 94 e8 0c 	jmp	0x19d0	; 0x19d0 <mp3_sound>
    1b84:	1f 34       	cpi	r17, 0x4F	; 79
    1b86:	09 f4       	brne	.+2      	; 0x1b8a <mp3_parse_command+0x66>
    1b88:	4f c0       	rjmp	.+158    	; 0x1c28 <mp3_parse_command+0x104>
    1b8a:	00 f5       	brcc	.+64     	; 0x1bcc <mp3_parse_command+0xa8>
    1b8c:	14 34       	cpi	r17, 0x44	; 68
    1b8e:	09 f4       	brne	.+2      	; 0x1b92 <mp3_parse_command+0x6e>
    1b90:	7e c0       	rjmp	.+252    	; 0x1c8e <mp3_parse_command+0x16a>
    1b92:	78 f4       	brcc	.+30     	; 0x1bb2 <mp3_parse_command+0x8e>
    1b94:	1d 32       	cpi	r17, 0x2D	; 45
    1b96:	09 f4       	brne	.+2      	; 0x1b9a <mp3_parse_command+0x76>
    1b98:	83 c0       	rjmp	.+262    	; 0x1ca0 <mp3_parse_command+0x17c>
    1b9a:	13 34       	cpi	r17, 0x43	; 67
    1b9c:	09 f4       	brne	.+2      	; 0x1ba0 <mp3_parse_command+0x7c>
    1b9e:	55 c0       	rjmp	.+170    	; 0x1c4a <mp3_parse_command+0x126>
    1ba0:	1b 32       	cpi	r17, 0x2B	; 43
    1ba2:	09 f0       	breq	.+2      	; 0x1ba6 <mp3_parse_command+0x82>
    1ba4:	9d c0       	rjmp	.+314    	; 0x1ce0 <mp3_parse_command+0x1bc>
    1ba6:	df 91       	pop	r29
    1ba8:	cf 91       	pop	r28
    1baa:	1f 91       	pop	r17
    1bac:	0f 91       	pop	r16
    1bae:	0c 94 4c 0d 	jmp	0x1a98	; 0x1a98 <mp3_volumeup>
    1bb2:	1c 34       	cpi	r17, 0x4C	; 76
    1bb4:	09 f4       	brne	.+2      	; 0x1bb8 <mp3_parse_command+0x94>
    1bb6:	40 c0       	rjmp	.+128    	; 0x1c38 <mp3_parse_command+0x114>
    1bb8:	1d 34       	cpi	r17, 0x4D	; 77
    1bba:	09 f4       	brne	.+2      	; 0x1bbe <mp3_parse_command+0x9a>
    1bbc:	87 c0       	rjmp	.+270    	; 0x1ccc <mp3_parse_command+0x1a8>
    1bbe:	16 34       	cpi	r17, 0x46	; 70
    1bc0:	09 f0       	breq	.+2      	; 0x1bc4 <mp3_parse_command+0xa0>
    1bc2:	8e c0       	rjmp	.+284    	; 0x1ce0 <mp3_parse_command+0x1bc>
    1bc4:	0e 94 d4 0c 	call	0x19a8	; 0x19a8 <mp3_suspend_random>
    1bc8:	63 e0       	ldi	r22, 0x03	; 3
    1bca:	5d c0       	rjmp	.+186    	; 0x1c86 <mp3_parse_command+0x162>
    1bcc:	13 36       	cpi	r17, 0x63	; 99
    1bce:	09 f4       	brne	.+2      	; 0x1bd2 <mp3_parse_command+0xae>
    1bd0:	4e c0       	rjmp	.+156    	; 0x1c6e <mp3_parse_command+0x14a>
    1bd2:	78 f4       	brcc	.+30     	; 0x1bf2 <mp3_parse_command+0xce>
    1bd4:	13 35       	cpi	r17, 0x53	; 83
    1bd6:	09 f4       	brne	.+2      	; 0x1bda <mp3_parse_command+0xb6>
    1bd8:	53 c0       	rjmp	.+166    	; 0x1c80 <mp3_parse_command+0x15c>
    1bda:	17 35       	cpi	r17, 0x57	; 87
    1bdc:	09 f4       	brne	.+2      	; 0x1be0 <mp3_parse_command+0xbc>
    1bde:	72 c0       	rjmp	.+228    	; 0x1cc4 <mp3_parse_command+0x1a0>
    1be0:	12 35       	cpi	r17, 0x52	; 82
    1be2:	09 f0       	breq	.+2      	; 0x1be6 <mp3_parse_command+0xc2>
    1be4:	7d c0       	rjmp	.+250    	; 0x1ce0 <mp3_parse_command+0x1bc>
    1be6:	df 91       	pop	r29
    1be8:	cf 91       	pop	r28
    1bea:	1f 91       	pop	r17
    1bec:	0f 91       	pop	r16
    1bee:	0c 94 c5 0c 	jmp	0x198a	; 0x198a <mp3_start_random>
    1bf2:	1d 36       	cpi	r17, 0x6D	; 109
    1bf4:	09 f4       	brne	.+2      	; 0x1bf8 <mp3_parse_command+0xd4>
    1bf6:	5a c0       	rjmp	.+180    	; 0x1cac <mp3_parse_command+0x188>
    1bf8:	48 f4       	brcc	.+18     	; 0x1c0c <mp3_parse_command+0xe8>
    1bfa:	16 36       	cpi	r17, 0x66	; 102
    1bfc:	09 f0       	breq	.+2      	; 0x1c00 <mp3_parse_command+0xdc>
    1bfe:	70 c0       	rjmp	.+224    	; 0x1ce0 <mp3_parse_command+0x1bc>
    1c00:	df 91       	pop	r29
    1c02:	cf 91       	pop	r28
    1c04:	1f 91       	pop	r17
    1c06:	0f 91       	pop	r16
    1c08:	0c 94 88 0d 	jmp	0x1b10	; 0x1b10 <mp3_volumemax>
    1c0c:	10 37       	cpi	r17, 0x70	; 112
    1c0e:	09 f4       	brne	.+2      	; 0x1c12 <mp3_parse_command+0xee>
    1c10:	53 c0       	rjmp	.+166    	; 0x1cb8 <mp3_parse_command+0x194>
    1c12:	13 37       	cpi	r17, 0x73	; 115
    1c14:	09 f0       	breq	.+2      	; 0x1c18 <mp3_parse_command+0xf4>
    1c16:	64 c0       	rjmp	.+200    	; 0x1ce0 <mp3_parse_command+0x1bc>
    1c18:	0e 94 cd 0c 	call	0x199a	; 0x199a <mp3_stop_random>
    1c1c:	df 91       	pop	r29
    1c1e:	cf 91       	pop	r28
    1c20:	1f 91       	pop	r17
    1c22:	0f 91       	pop	r16
    1c24:	0c 94 3f 0d 	jmp	0x1a7e	; 0x1a7e <mp3_stop>
    1c28:	0e 94 cd 0c 	call	0x199a	; 0x199a <mp3_stop_random>
    1c2c:	df 91       	pop	r29
    1c2e:	cf 91       	pop	r28
    1c30:	1f 91       	pop	r17
    1c32:	0f 91       	pop	r16
    1c34:	0c 94 83 0d 	jmp	0x1b06	; 0x1b06 <mp3_volumeoff>
    1c38:	0e 94 d4 0c 	call	0x19a8	; 0x19a8 <mp3_suspend_random>
    1c3c:	61 e0       	ldi	r22, 0x01	; 1
    1c3e:	87 e0       	ldi	r24, 0x07	; 7
    1c40:	0e 94 88 0c 	call	0x1910	; 0x1910 <mp3_sound.part.0>
    1c44:	80 e3       	ldi	r24, 0x30	; 48
    1c46:	91 e1       	ldi	r25, 0x11	; 17
    1c48:	08 c0       	rjmp	.+16     	; 0x1c5a <mp3_parse_command+0x136>
    1c4a:	0e 94 d4 0c 	call	0x19a8	; 0x19a8 <mp3_suspend_random>
    1c4e:	65 e0       	ldi	r22, 0x05	; 5
    1c50:	88 e0       	ldi	r24, 0x08	; 8
    1c52:	0e 94 88 0c 	call	0x1910	; 0x1910 <mp3_sound.part.0>
    1c56:	80 ee       	ldi	r24, 0xE0	; 224
    1c58:	95 e1       	ldi	r25, 0x15	; 21
    1c5a:	90 93 b0 02 	sts	0x02B0, r25
    1c5e:	80 93 af 02 	sts	0x02AF, r24
    1c62:	df 91       	pop	r29
    1c64:	cf 91       	pop	r28
    1c66:	1f 91       	pop	r17
    1c68:	0f 91       	pop	r16
    1c6a:	0c 94 e1 0c 	jmp	0x19c2	; 0x19c2 <mp3_resume_random>
    1c6e:	0e 94 d4 0c 	call	0x19a8	; 0x19a8 <mp3_suspend_random>
    1c72:	61 e0       	ldi	r22, 0x01	; 1
    1c74:	88 e0       	ldi	r24, 0x08	; 8
    1c76:	0e 94 88 0c 	call	0x1910	; 0x1910 <mp3_sound.part.0>
    1c7a:	8c e8       	ldi	r24, 0x8C	; 140
    1c7c:	9a e0       	ldi	r25, 0x0A	; 10
    1c7e:	ed cf       	rjmp	.-38     	; 0x1c5a <mp3_parse_command+0x136>
    1c80:	0e 94 d4 0c 	call	0x19a8	; 0x19a8 <mp3_suspend_random>
    1c84:	61 e0       	ldi	r22, 0x01	; 1
    1c86:	86 e0       	ldi	r24, 0x06	; 6
    1c88:	0e 94 88 0c 	call	0x1910	; 0x1910 <mp3_sound.part.0>
    1c8c:	ea cf       	rjmp	.-44     	; 0x1c62 <mp3_parse_command+0x13e>
    1c8e:	0e 94 d4 0c 	call	0x19a8	; 0x19a8 <mp3_suspend_random>
    1c92:	66 e0       	ldi	r22, 0x06	; 6
    1c94:	88 e0       	ldi	r24, 0x08	; 8
    1c96:	0e 94 88 0c 	call	0x1910	; 0x1910 <mp3_sound.part.0>
    1c9a:	80 eb       	ldi	r24, 0xB0	; 176
    1c9c:	9a e9       	ldi	r25, 0x9A	; 154
    1c9e:	dd cf       	rjmp	.-70     	; 0x1c5a <mp3_parse_command+0x136>
    1ca0:	df 91       	pop	r29
    1ca2:	cf 91       	pop	r28
    1ca4:	1f 91       	pop	r17
    1ca6:	0f 91       	pop	r16
    1ca8:	0c 94 5a 0d 	jmp	0x1ab4	; 0x1ab4 <mp3_volumedown>
    1cac:	df 91       	pop	r29
    1cae:	cf 91       	pop	r28
    1cb0:	1f 91       	pop	r17
    1cb2:	0f 91       	pop	r16
    1cb4:	0c 94 6f 0d 	jmp	0x1ade	; 0x1ade <mp3_volumemid>
    1cb8:	df 91       	pop	r29
    1cba:	cf 91       	pop	r28
    1cbc:	1f 91       	pop	r17
    1cbe:	0f 91       	pop	r16
    1cc0:	0c 94 8d 0d 	jmp	0x1b1a	; 0x1b1a <mp3_volumemin>
    1cc4:	0e 94 cd 0c 	call	0x199a	; 0x199a <mp3_stop_random>
    1cc8:	62 e0       	ldi	r22, 0x02	; 2
    1cca:	03 c0       	rjmp	.+6      	; 0x1cd2 <mp3_parse_command+0x1ae>
    1ccc:	0e 94 cd 0c 	call	0x199a	; 0x199a <mp3_stop_random>
    1cd0:	63 e0       	ldi	r22, 0x03	; 3
    1cd2:	88 e0       	ldi	r24, 0x08	; 8
    1cd4:	df 91       	pop	r29
    1cd6:	cf 91       	pop	r28
    1cd8:	1f 91       	pop	r17
    1cda:	0f 91       	pop	r16
    1cdc:	0c 94 88 0c 	jmp	0x1910	; 0x1910 <mp3_sound.part.0>
    1ce0:	8c ed       	ldi	r24, 0xDC	; 220
    1ce2:	90 e0       	ldi	r25, 0x00	; 0
    1ce4:	df 91       	pop	r29
    1ce6:	cf 91       	pop	r28
    1ce8:	1f 91       	pop	r17
    1cea:	0f 91       	pop	r16
    1cec:	0c 94 8d 1c 	jmp	0x391a	; 0x391a <serial_puts_p>

00001cf0 <_inline_fifo_get>:
    1cf0:	fc 01       	movw	r30, r24
    1cf2:	a2 81       	ldd	r26, Z+2	; 0x02
    1cf4:	b3 81       	ldd	r27, Z+3	; 0x03
    1cf6:	9d 01       	movw	r18, r26
    1cf8:	2f 5f       	subi	r18, 0xFF	; 255
    1cfa:	3f 4f       	sbci	r19, 0xFF	; 255
    1cfc:	8c 91       	ld	r24, X
    1cfe:	96 81       	ldd	r25, Z+6	; 0x06
    1d00:	91 50       	subi	r25, 0x01	; 1
    1d02:	19 f4       	brne	.+6      	; 0x1d0a <_inline_fifo_get+0x1a>
    1d04:	91 81       	ldd	r25, Z+1	; 0x01
    1d06:	29 1b       	sub	r18, r25
    1d08:	31 09       	sbc	r19, r1
    1d0a:	33 83       	std	Z+3, r19	; 0x03
    1d0c:	22 83       	std	Z+2, r18	; 0x02
    1d0e:	96 83       	std	Z+6, r25	; 0x06
    1d10:	2f b7       	in	r18, 0x3f	; 63
    1d12:	f8 94       	cli
    1d14:	90 81       	ld	r25, Z
    1d16:	91 50       	subi	r25, 0x01	; 1
    1d18:	90 83       	st	Z, r25
    1d1a:	2f bf       	out	0x3f, r18	; 63
    1d1c:	08 95       	ret

00001d1e <fifo_init>:
    1d1e:	fc 01       	movw	r30, r24
    1d20:	10 82       	st	Z, r1
    1d22:	75 83       	std	Z+5, r23	; 0x05
    1d24:	64 83       	std	Z+4, r22	; 0x04
    1d26:	73 83       	std	Z+3, r23	; 0x03
    1d28:	62 83       	std	Z+2, r22	; 0x02
    1d2a:	41 83       	std	Z+1, r20	; 0x01
    1d2c:	47 83       	std	Z+7, r20	; 0x07
    1d2e:	46 83       	std	Z+6, r20	; 0x06
    1d30:	08 95       	ret

00001d32 <fifo_put>:
    1d32:	fc 01       	movw	r30, r24
    1d34:	90 81       	ld	r25, Z
    1d36:	81 81       	ldd	r24, Z+1	; 0x01
    1d38:	98 17       	cp	r25, r24
    1d3a:	b0 f4       	brcc	.+44     	; 0x1d68 <fifo_put+0x36>
    1d3c:	a4 81       	ldd	r26, Z+4	; 0x04
    1d3e:	b5 81       	ldd	r27, Z+5	; 0x05
    1d40:	cd 01       	movw	r24, r26
    1d42:	01 96       	adiw	r24, 0x01	; 1
    1d44:	6c 93       	st	X, r22
    1d46:	27 81       	ldd	r18, Z+7	; 0x07
    1d48:	21 50       	subi	r18, 0x01	; 1
    1d4a:	19 f4       	brne	.+6      	; 0x1d52 <fifo_put+0x20>
    1d4c:	21 81       	ldd	r18, Z+1	; 0x01
    1d4e:	82 1b       	sub	r24, r18
    1d50:	91 09       	sbc	r25, r1
    1d52:	27 83       	std	Z+7, r18	; 0x07
    1d54:	95 83       	std	Z+5, r25	; 0x05
    1d56:	84 83       	std	Z+4, r24	; 0x04
    1d58:	9f b7       	in	r25, 0x3f	; 63
    1d5a:	f8 94       	cli
    1d5c:	80 81       	ld	r24, Z
    1d5e:	8f 5f       	subi	r24, 0xFF	; 255
    1d60:	80 83       	st	Z, r24
    1d62:	9f bf       	out	0x3f, r25	; 63
    1d64:	81 e0       	ldi	r24, 0x01	; 1
    1d66:	08 95       	ret
    1d68:	80 e0       	ldi	r24, 0x00	; 0
    1d6a:	08 95       	ret

00001d6c <fifo_get_wait>:
    1d6c:	fc 01       	movw	r30, r24
    1d6e:	20 81       	ld	r18, Z
    1d70:	22 23       	and	r18, r18
    1d72:	e1 f3       	breq	.-8      	; 0x1d6c <fifo_get_wait>
    1d74:	0c 94 78 0e 	jmp	0x1cf0	; 0x1cf0 <_inline_fifo_get>

00001d78 <fifo_get_nowait>:
    1d78:	fc 01       	movw	r30, r24
    1d7a:	20 81       	ld	r18, Z
    1d7c:	22 23       	and	r18, r18
    1d7e:	21 f0       	breq	.+8      	; 0x1d88 <fifo_get_nowait+0x10>
    1d80:	0e 94 78 0e 	call	0x1cf0	; 0x1cf0 <_inline_fifo_get>
    1d84:	90 e0       	ldi	r25, 0x00	; 0
    1d86:	08 95       	ret
    1d88:	8f ef       	ldi	r24, 0xFF	; 255
    1d8a:	9f ef       	ldi	r25, 0xFF	; 255
    1d8c:	08 95       	ret

00001d8e <fifo_available>:
    1d8e:	fc 01       	movw	r30, r24
    1d90:	20 81       	ld	r18, Z
    1d92:	81 e0       	ldi	r24, 0x01	; 1
    1d94:	90 e0       	ldi	r25, 0x00	; 0
    1d96:	21 11       	cpse	r18, r1
    1d98:	02 c0       	rjmp	.+4      	; 0x1d9e <fifo_available+0x10>
    1d9a:	80 e0       	ldi	r24, 0x00	; 0
    1d9c:	90 e0       	ldi	r25, 0x00	; 0
    1d9e:	08 95       	ret

00001da0 <i2c_execCmd>:
    1da0:	80 93 bc 00 	sts	0x00BC, r24
    1da4:	82 e3       	ldi	r24, 0x32	; 50
    1da6:	90 e0       	ldi	r25, 0x00	; 0
    1da8:	90 93 b2 02 	sts	0x02B2, r25
    1dac:	80 93 b1 02 	sts	0x02B1, r24
    1db0:	80 91 bc 00 	lds	r24, 0x00BC
    1db4:	87 fd       	sbrc	r24, 7
    1db6:	0d c0       	rjmp	.+26     	; 0x1dd2 <i2c_execCmd+0x32>
    1db8:	80 91 b1 02 	lds	r24, 0x02B1
    1dbc:	90 91 b2 02 	lds	r25, 0x02B2
    1dc0:	89 2b       	or	r24, r25
    1dc2:	b1 f7       	brne	.-20     	; 0x1db0 <i2c_execCmd+0x10>
    1dc4:	80 91 b9 00 	lds	r24, 0x00B9
    1dc8:	88 7f       	andi	r24, 0xF8	; 248
    1dca:	80 93 6b 02 	sts	0x026B, r24
    1dce:	81 e0       	ldi	r24, 0x01	; 1
    1dd0:	08 95       	ret
    1dd2:	80 91 b9 00 	lds	r24, 0x00B9
    1dd6:	88 7f       	andi	r24, 0xF8	; 248
    1dd8:	80 93 6b 02 	sts	0x026B, r24
    1ddc:	80 e0       	ldi	r24, 0x00	; 0
    1dde:	08 95       	ret

00001de0 <i2c_status>:
    1de0:	80 91 6b 02 	lds	r24, 0x026B
    1de4:	08 95       	ret

00001de6 <i2c_init>:
    1de6:	10 92 b9 00 	sts	0x00B9, r1
    1dea:	98 e4       	ldi	r25, 0x48	; 72
    1dec:	90 93 b8 00 	sts	0x00B8, r25
    1df0:	88 23       	and	r24, r24
    1df2:	11 f0       	breq	.+4      	; 0x1df8 <i2c_init+0x12>
    1df4:	44 9a       	sbi	0x08, 4	; 8
    1df6:	45 9a       	sbi	0x08, 5	; 8
    1df8:	8f ef       	ldi	r24, 0xFF	; 255
    1dfa:	80 93 bb 00 	sts	0x00BB, r24
    1dfe:	84 e0       	ldi	r24, 0x04	; 4
    1e00:	80 93 bc 00 	sts	0x00BC, r24
    1e04:	81 eb       	ldi	r24, 0xB1	; 177
    1e06:	92 e0       	ldi	r25, 0x02	; 2
    1e08:	0c 94 ba 18 	jmp	0x3174	; 0x3174 <rt_add_timer>

00001e0c <i2c_close>:
    1e0c:	10 92 bc 00 	sts	0x00BC, r1
    1e10:	08 95       	ret

00001e12 <i2c_stop>:
    1e12:	84 e9       	ldi	r24, 0x94	; 148
    1e14:	80 93 bc 00 	sts	0x00BC, r24
    1e18:	82 e3       	ldi	r24, 0x32	; 50
    1e1a:	90 e0       	ldi	r25, 0x00	; 0
    1e1c:	90 93 b2 02 	sts	0x02B2, r25
    1e20:	80 93 b1 02 	sts	0x02B1, r24
    1e24:	80 91 bc 00 	lds	r24, 0x00BC
    1e28:	84 ff       	sbrs	r24, 4
    1e2a:	0d c0       	rjmp	.+26     	; 0x1e46 <i2c_stop+0x34>
    1e2c:	80 91 b1 02 	lds	r24, 0x02B1
    1e30:	90 91 b2 02 	lds	r25, 0x02B2
    1e34:	89 2b       	or	r24, r25
    1e36:	b1 f7       	brne	.-20     	; 0x1e24 <i2c_stop+0x12>
    1e38:	80 91 b9 00 	lds	r24, 0x00B9
    1e3c:	88 7f       	andi	r24, 0xF8	; 248
    1e3e:	80 93 6b 02 	sts	0x026B, r24
    1e42:	81 e0       	ldi	r24, 0x01	; 1
    1e44:	08 95       	ret
    1e46:	80 91 b9 00 	lds	r24, 0x00B9
    1e4a:	88 7f       	andi	r24, 0xF8	; 248
    1e4c:	80 93 6b 02 	sts	0x026B, r24
    1e50:	80 e0       	ldi	r24, 0x00	; 0
    1e52:	08 95       	ret

00001e54 <i2c_start>:
    1e54:	cf 93       	push	r28
    1e56:	df 93       	push	r29
    1e58:	d8 2f       	mov	r29, r24
    1e5a:	c6 2f       	mov	r28, r22
    1e5c:	84 ea       	ldi	r24, 0xA4	; 164
    1e5e:	0e 94 d0 0e 	call	0x1da0	; 0x1da0 <i2c_execCmd>
    1e62:	81 11       	cpse	r24, r1
    1e64:	16 c0       	rjmp	.+44     	; 0x1e92 <i2c_start+0x3e>
    1e66:	90 91 6b 02 	lds	r25, 0x026B
    1e6a:	98 30       	cpi	r25, 0x08	; 8
    1e6c:	11 f0       	breq	.+4      	; 0x1e72 <i2c_start+0x1e>
    1e6e:	90 31       	cpi	r25, 0x10	; 16
    1e70:	81 f4       	brne	.+32     	; 0x1e92 <i2c_start+0x3e>
    1e72:	8d 2f       	mov	r24, r29
    1e74:	88 0f       	add	r24, r24
    1e76:	8c 2b       	or	r24, r28
    1e78:	80 93 bb 00 	sts	0x00BB, r24
    1e7c:	84 e8       	ldi	r24, 0x84	; 132
    1e7e:	0e 94 d0 0e 	call	0x1da0	; 0x1da0 <i2c_execCmd>
    1e82:	81 11       	cpse	r24, r1
    1e84:	06 c0       	rjmp	.+12     	; 0x1e92 <i2c_start+0x3e>
    1e86:	80 91 6b 02 	lds	r24, 0x026B
    1e8a:	c1 30       	cpi	r28, 0x01	; 1
    1e8c:	31 f4       	brne	.+12     	; 0x1e9a <i2c_start+0x46>
    1e8e:	80 34       	cpi	r24, 0x40	; 64
    1e90:	31 f0       	breq	.+12     	; 0x1e9e <i2c_start+0x4a>
    1e92:	0e 94 09 0f 	call	0x1e12	; 0x1e12 <i2c_stop>
    1e96:	81 e0       	ldi	r24, 0x01	; 1
    1e98:	03 c0       	rjmp	.+6      	; 0x1ea0 <i2c_start+0x4c>
    1e9a:	88 31       	cpi	r24, 0x18	; 24
    1e9c:	d1 f7       	brne	.-12     	; 0x1e92 <i2c_start+0x3e>
    1e9e:	80 e0       	ldi	r24, 0x00	; 0
    1ea0:	df 91       	pop	r29
    1ea2:	cf 91       	pop	r28
    1ea4:	08 95       	ret

00001ea6 <i2c_write>:
    1ea6:	80 93 bb 00 	sts	0x00BB, r24
    1eaa:	84 e8       	ldi	r24, 0x84	; 132
    1eac:	0e 94 d0 0e 	call	0x1da0	; 0x1da0 <i2c_execCmd>
    1eb0:	88 23       	and	r24, r24
    1eb2:	21 f0       	breq	.+8      	; 0x1ebc <i2c_write+0x16>
    1eb4:	0e 94 09 0f 	call	0x1e12	; 0x1e12 <i2c_stop>
    1eb8:	81 e0       	ldi	r24, 0x01	; 1
    1eba:	08 95       	ret
    1ebc:	80 91 6b 02 	lds	r24, 0x026B
    1ec0:	88 32       	cpi	r24, 0x28	; 40
    1ec2:	c1 f7       	brne	.-16     	; 0x1eb4 <i2c_write+0xe>
    1ec4:	80 e0       	ldi	r24, 0x00	; 0
    1ec6:	08 95       	ret

00001ec8 <i2c_read>:
    1ec8:	cf 93       	push	r28
    1eca:	df 93       	push	r29
    1ecc:	ec 01       	movw	r28, r24
    1ece:	66 23       	and	r22, r22
    1ed0:	11 f0       	breq	.+4      	; 0x1ed6 <i2c_read+0xe>
    1ed2:	84 e8       	ldi	r24, 0x84	; 132
    1ed4:	01 c0       	rjmp	.+2      	; 0x1ed8 <i2c_read+0x10>
    1ed6:	84 ec       	ldi	r24, 0xC4	; 196
    1ed8:	0e 94 d0 0e 	call	0x1da0	; 0x1da0 <i2c_execCmd>
    1edc:	88 23       	and	r24, r24
    1ede:	21 f0       	breq	.+8      	; 0x1ee8 <i2c_read+0x20>
    1ee0:	0e 94 09 0f 	call	0x1e12	; 0x1e12 <i2c_stop>
    1ee4:	81 e0       	ldi	r24, 0x01	; 1
    1ee6:	04 c0       	rjmp	.+8      	; 0x1ef0 <i2c_read+0x28>
    1ee8:	80 91 bb 00 	lds	r24, 0x00BB
    1eec:	88 83       	st	Y, r24
    1eee:	80 e0       	ldi	r24, 0x00	; 0
    1ef0:	df 91       	pop	r29
    1ef2:	cf 91       	pop	r28
    1ef4:	08 95       	ret

00001ef6 <i2c_send_data>:
    1ef6:	df 92       	push	r13
    1ef8:	ef 92       	push	r14
    1efa:	ff 92       	push	r15
    1efc:	0f 93       	push	r16
    1efe:	1f 93       	push	r17
    1f00:	cf 93       	push	r28
    1f02:	df 93       	push	r29
    1f04:	8b 01       	movw	r16, r22
    1f06:	f4 2e       	mov	r15, r20
    1f08:	e2 2e       	mov	r14, r18
    1f0a:	61 15       	cp	r22, r1
    1f0c:	71 05       	cpc	r23, r1
    1f0e:	11 f0       	breq	.+4      	; 0x1f14 <i2c_send_data+0x1e>
    1f10:	41 11       	cpse	r20, r1
    1f12:	03 c0       	rjmp	.+6      	; 0x1f1a <i2c_send_data+0x24>
    1f14:	0e 94 09 0f 	call	0x1e12	; 0x1e12 <i2c_stop>
    1f18:	11 c0       	rjmp	.+34     	; 0x1f3c <i2c_send_data+0x46>
    1f1a:	60 e0       	ldi	r22, 0x00	; 0
    1f1c:	0e 94 2a 0f 	call	0x1e54	; 0x1e54 <i2c_start>
    1f20:	81 11       	cpse	r24, r1
    1f22:	0c c0       	rjmp	.+24     	; 0x1f3c <i2c_send_data+0x46>
    1f24:	d0 2e       	mov	r13, r16
    1f26:	c0 2f       	mov	r28, r16
    1f28:	d1 2f       	mov	r29, r17
    1f2a:	8c 2f       	mov	r24, r28
    1f2c:	8d 19       	sub	r24, r13
    1f2e:	8f 15       	cp	r24, r15
    1f30:	38 f4       	brcc	.+14     	; 0x1f40 <i2c_send_data+0x4a>
    1f32:	89 91       	ld	r24, Y+
    1f34:	0e 94 53 0f 	call	0x1ea6	; 0x1ea6 <i2c_write>
    1f38:	88 23       	and	r24, r24
    1f3a:	b9 f3       	breq	.-18     	; 0x1f2a <i2c_send_data+0x34>
    1f3c:	81 e0       	ldi	r24, 0x01	; 1
    1f3e:	04 c0       	rjmp	.+8      	; 0x1f48 <i2c_send_data+0x52>
    1f40:	e1 10       	cpse	r14, r1
    1f42:	0e 94 09 0f 	call	0x1e12	; 0x1e12 <i2c_stop>
    1f46:	80 e0       	ldi	r24, 0x00	; 0
    1f48:	df 91       	pop	r29
    1f4a:	cf 91       	pop	r28
    1f4c:	1f 91       	pop	r17
    1f4e:	0f 91       	pop	r16
    1f50:	ff 90       	pop	r15
    1f52:	ef 90       	pop	r14
    1f54:	df 90       	pop	r13
    1f56:	08 95       	ret

00001f58 <i2c_receive_data>:
    1f58:	bf 92       	push	r11
    1f5a:	cf 92       	push	r12
    1f5c:	df 92       	push	r13
    1f5e:	ef 92       	push	r14
    1f60:	ff 92       	push	r15
    1f62:	0f 93       	push	r16
    1f64:	1f 93       	push	r17
    1f66:	cf 93       	push	r28
    1f68:	df 93       	push	r29
    1f6a:	1f 92       	push	r1
    1f6c:	cd b7       	in	r28, 0x3d	; 61
    1f6e:	de b7       	in	r29, 0x3e	; 62
    1f70:	8b 01       	movw	r16, r22
    1f72:	c4 2e       	mov	r12, r20
    1f74:	61 15       	cp	r22, r1
    1f76:	71 05       	cpc	r23, r1
    1f78:	11 f0       	breq	.+4      	; 0x1f7e <i2c_receive_data+0x26>
    1f7a:	41 11       	cpse	r20, r1
    1f7c:	04 c0       	rjmp	.+8      	; 0x1f86 <i2c_receive_data+0x2e>
    1f7e:	0e 94 09 0f 	call	0x1e12	; 0x1e12 <i2c_stop>
    1f82:	81 e0       	ldi	r24, 0x01	; 1
    1f84:	2c c0       	rjmp	.+88     	; 0x1fde <i2c_receive_data+0x86>
    1f86:	61 e0       	ldi	r22, 0x01	; 1
    1f88:	0e 94 2a 0f 	call	0x1e54	; 0x1e54 <i2c_start>
    1f8c:	81 11       	cpse	r24, r1
    1f8e:	f7 cf       	rjmp	.-18     	; 0x1f7e <i2c_receive_data+0x26>
    1f90:	b1 2c       	mov	r11, r1
    1f92:	d1 2c       	mov	r13, r1
    1f94:	81 e0       	ldi	r24, 0x01	; 1
    1f96:	c8 1a       	sub	r12, r24
    1f98:	d1 08       	sbc	r13, r1
    1f9a:	eb 2c       	mov	r14, r11
    1f9c:	f1 2c       	mov	r15, r1
    1f9e:	ec 14       	cp	r14, r12
    1fa0:	fd 04       	cpc	r15, r13
    1fa2:	74 f4       	brge	.+28     	; 0x1fc0 <i2c_receive_data+0x68>
    1fa4:	60 e0       	ldi	r22, 0x00	; 0
    1fa6:	ce 01       	movw	r24, r28
    1fa8:	01 96       	adiw	r24, 0x01	; 1
    1faa:	0e 94 64 0f 	call	0x1ec8	; 0x1ec8 <i2c_read>
    1fae:	81 11       	cpse	r24, r1
    1fb0:	e6 cf       	rjmp	.-52     	; 0x1f7e <i2c_receive_data+0x26>
    1fb2:	f8 01       	movw	r30, r16
    1fb4:	ee 0d       	add	r30, r14
    1fb6:	ff 1d       	adc	r31, r15
    1fb8:	89 81       	ldd	r24, Y+1	; 0x01
    1fba:	80 83       	st	Z, r24
    1fbc:	b3 94       	inc	r11
    1fbe:	ed cf       	rjmp	.-38     	; 0x1f9a <i2c_receive_data+0x42>
    1fc0:	61 e0       	ldi	r22, 0x01	; 1
    1fc2:	ce 01       	movw	r24, r28
    1fc4:	01 96       	adiw	r24, 0x01	; 1
    1fc6:	0e 94 64 0f 	call	0x1ec8	; 0x1ec8 <i2c_read>
    1fca:	81 11       	cpse	r24, r1
    1fcc:	d8 cf       	rjmp	.-80     	; 0x1f7e <i2c_receive_data+0x26>
    1fce:	f8 01       	movw	r30, r16
    1fd0:	ee 0d       	add	r30, r14
    1fd2:	ff 1d       	adc	r31, r15
    1fd4:	89 81       	ldd	r24, Y+1	; 0x01
    1fd6:	80 83       	st	Z, r24
    1fd8:	0e 94 09 0f 	call	0x1e12	; 0x1e12 <i2c_stop>
    1fdc:	80 e0       	ldi	r24, 0x00	; 0
    1fde:	0f 90       	pop	r0
    1fe0:	df 91       	pop	r29
    1fe2:	cf 91       	pop	r28
    1fe4:	1f 91       	pop	r17
    1fe6:	0f 91       	pop	r16
    1fe8:	ff 90       	pop	r15
    1fea:	ef 90       	pop	r14
    1fec:	df 90       	pop	r13
    1fee:	cf 90       	pop	r12
    1ff0:	bf 90       	pop	r11
    1ff2:	08 95       	ret

00001ff4 <resetJEDIcallback>:
    1ff4:	8e e4       	ldi	r24, 0x4E	; 78
    1ff6:	91 e0       	ldi	r25, 0x01	; 1
    1ff8:	0e 94 a1 1f 	call	0x3f42	; 0x3f42 <suart_puts>
    1ffc:	2f ef       	ldi	r18, 0xFF	; 255
    1ffe:	81 ee       	ldi	r24, 0xE1	; 225
    2000:	94 e0       	ldi	r25, 0x04	; 4
    2002:	21 50       	subi	r18, 0x01	; 1
    2004:	80 40       	sbci	r24, 0x00	; 0
    2006:	90 40       	sbci	r25, 0x00	; 0
    2008:	e1 f7       	brne	.-8      	; 0x2002 <resetJEDIcallback+0xe>
    200a:	00 c0       	rjmp	.+0      	; 0x200c <resetJEDIcallback+0x18>
    200c:	00 00       	nop
    200e:	85 e5       	ldi	r24, 0x55	; 85
    2010:	91 e0       	ldi	r25, 0x01	; 1
    2012:	0e 94 a1 1f 	call	0x3f42	; 0x3f42 <suart_puts>
    2016:	2f ef       	ldi	r18, 0xFF	; 255
    2018:	89 ef       	ldi	r24, 0xF9	; 249
    201a:	90 e0       	ldi	r25, 0x00	; 0
    201c:	21 50       	subi	r18, 0x01	; 1
    201e:	80 40       	sbci	r24, 0x00	; 0
    2020:	90 40       	sbci	r25, 0x00	; 0
    2022:	e1 f7       	brne	.-8      	; 0x201c <resetJEDIcallback+0x28>
    2024:	00 c0       	rjmp	.+0      	; 0x2026 <resetJEDIcallback+0x32>
    2026:	00 00       	nop
    2028:	0c 94 01 1a 	jmp	0x3402	; 0x3402 <seq_remove_completion_callback>

0000202c <rc_command.part.0>:
    202c:	e3 eb       	ldi	r30, 0xB3	; 179
    202e:	f2 e0       	ldi	r31, 0x02	; 2
    2030:	81 e0       	ldi	r24, 0x01	; 1
    2032:	81 93       	st	Z+, r24
    2034:	92 e0       	ldi	r25, 0x02	; 2
    2036:	ed 3b       	cpi	r30, 0xBD	; 189
    2038:	f9 07       	cpc	r31, r25
    203a:	d9 f7       	brne	.-10     	; 0x2032 <rc_command.part.0+0x6>
    203c:	08 95       	ret

0000203e <echo>:
    203e:	8d 30       	cpi	r24, 0x0D	; 13
    2040:	11 f0       	breq	.+4      	; 0x2046 <echo+0x8>
    2042:	8a 30       	cpi	r24, 0x0A	; 10
    2044:	21 f4       	brne	.+8      	; 0x204e <echo+0x10>
    2046:	8a e0       	ldi	r24, 0x0A	; 10
    2048:	0e 94 2c 1c 	call	0x3858	; 0x3858 <serial_putc>
    204c:	8d e0       	ldi	r24, 0x0D	; 13
    204e:	0c 94 2c 1c 	jmp	0x3858	; 0x3858 <serial_putc>

00002052 <build_command>:
    2052:	38 2f       	mov	r19, r24
    2054:	cb 01       	movw	r24, r22
    2056:	20 91 6c 02 	lds	r18, 0x026C
    205a:	e2 2f       	mov	r30, r18
    205c:	f0 e0       	ldi	r31, 0x00	; 0
    205e:	e7 53       	subi	r30, 0x37	; 55
    2060:	fd 4f       	sbci	r31, 0xFD	; 253
    2062:	3d 30       	cpi	r19, 0x0D	; 13
    2064:	49 f4       	brne	.+18     	; 0x2078 <build_command+0x26>
    2066:	10 82       	st	Z, r1
    2068:	10 92 6c 02 	sts	0x026C, r1
    206c:	69 ec       	ldi	r22, 0xC9	; 201
    206e:	72 e0       	ldi	r23, 0x02	; 2
    2070:	0e 94 d9 22 	call	0x45b2	; 0x45b2 <strcpy>
    2074:	81 e0       	ldi	r24, 0x01	; 1
    2076:	08 95       	ret
    2078:	30 83       	st	Z, r19
    207a:	20 34       	cpi	r18, 0x40	; 64
    207c:	18 f4       	brcc	.+6      	; 0x2084 <build_command+0x32>
    207e:	2f 5f       	subi	r18, 0xFF	; 255
    2080:	20 93 6c 02 	sts	0x026C, r18
    2084:	80 e0       	ldi	r24, 0x00	; 0
    2086:	08 95       	ret

00002088 <parse_hp_command>:
    2088:	cf 93       	push	r28
    208a:	df 93       	push	r29
    208c:	ec 01       	movw	r28, r24
    208e:	80 91 6d 02 	lds	r24, 0x026D
    2092:	88 23       	and	r24, r24
    2094:	21 f0       	breq	.+8      	; 0x209e <parse_hp_command+0x16>
    2096:	83 e2       	ldi	r24, 0x23	; 35
    2098:	93 e0       	ldi	r25, 0x03	; 3
    209a:	0e 94 8d 1c 	call	0x391a	; 0x391a <serial_puts_p>
    209e:	ce 01       	movw	r24, r28
    20a0:	0e 94 a1 1f 	call	0x3f42	; 0x3f42 <suart_puts>
    20a4:	8d e0       	ldi	r24, 0x0D	; 13
    20a6:	df 91       	pop	r29
    20a8:	cf 91       	pop	r28
    20aa:	0c 94 64 1f 	jmp	0x3ec8	; 0x3ec8 <suart_putc>

000020ae <parse_display_command>:
    20ae:	cf 93       	push	r28
    20b0:	df 93       	push	r29
    20b2:	ec 01       	movw	r28, r24
    20b4:	80 91 6d 02 	lds	r24, 0x026D
    20b8:	88 23       	and	r24, r24
    20ba:	21 f0       	breq	.+8      	; 0x20c4 <parse_display_command+0x16>
    20bc:	81 e1       	ldi	r24, 0x11	; 17
    20be:	93 e0       	ldi	r25, 0x03	; 3
    20c0:	0e 94 8d 1c 	call	0x391a	; 0x391a <serial_puts_p>
    20c4:	ce 01       	movw	r24, r28
    20c6:	0e 94 a1 1f 	call	0x3f42	; 0x3f42 <suart_puts>
    20ca:	8d e0       	ldi	r24, 0x0D	; 13
    20cc:	df 91       	pop	r29
    20ce:	cf 91       	pop	r28
    20d0:	0c 94 64 1f 	jmp	0x3ec8	; 0x3ec8 <suart_putc>

000020d4 <parse_sound_command>:
    20d4:	cf 93       	push	r28
    20d6:	df 93       	push	r29
    20d8:	ec 01       	movw	r28, r24
    20da:	80 91 6d 02 	lds	r24, 0x026D
    20de:	88 23       	and	r24, r24
    20e0:	21 f0       	breq	.+8      	; 0x20ea <parse_sound_command+0x16>
    20e2:	81 e0       	ldi	r24, 0x01	; 1
    20e4:	93 e0       	ldi	r25, 0x03	; 3
    20e6:	0e 94 8d 1c 	call	0x391a	; 0x391a <serial_puts_p>
    20ea:	ce 01       	movw	r24, r28
    20ec:	df 91       	pop	r29
    20ee:	cf 91       	pop	r28
    20f0:	0c 94 92 0d 	jmp	0x1b24	; 0x1b24 <mp3_parse_command>

000020f4 <parse_alt1_command>:
    20f4:	cf 93       	push	r28
    20f6:	df 93       	push	r29
    20f8:	ec 01       	movw	r28, r24
    20fa:	80 91 6d 02 	lds	r24, 0x026D
    20fe:	88 23       	and	r24, r24
    2100:	21 f0       	breq	.+8      	; 0x210a <parse_alt1_command+0x16>
    2102:	81 ee       	ldi	r24, 0xE1	; 225
    2104:	92 e0       	ldi	r25, 0x02	; 2
    2106:	0e 94 8d 1c 	call	0x391a	; 0x391a <serial_puts_p>
    210a:	ce 01       	movw	r24, r28
    210c:	01 96       	adiw	r24, 0x01	; 1
    210e:	0e 94 68 20 	call	0x40d0	; 0x40d0 <suart2_puts>
    2112:	8d e0       	ldi	r24, 0x0D	; 13
    2114:	df 91       	pop	r29
    2116:	cf 91       	pop	r28
    2118:	0c 94 2b 20 	jmp	0x4056	; 0x4056 <suart2_putc>

0000211c <parse_alt2_command>:
    211c:	cf 93       	push	r28
    211e:	df 93       	push	r29
    2120:	ec 01       	movw	r28, r24
    2122:	80 91 6d 02 	lds	r24, 0x026D
    2126:	88 23       	and	r24, r24
    2128:	21 f0       	breq	.+8      	; 0x2132 <parse_alt2_command+0x16>
    212a:	81 ee       	ldi	r24, 0xE1	; 225
    212c:	92 e0       	ldi	r25, 0x02	; 2
    212e:	0e 94 8d 1c 	call	0x391a	; 0x391a <serial_puts_p>
    2132:	ce 01       	movw	r24, r28
    2134:	0e 94 a1 1f 	call	0x3f42	; 0x3f42 <suart_puts>
    2138:	8d e0       	ldi	r24, 0x0D	; 13
    213a:	df 91       	pop	r29
    213c:	cf 91       	pop	r28
    213e:	0c 94 64 1f 	jmp	0x3ec8	; 0x3ec8 <suart_putc>

00002142 <append_token>:
    2142:	ef 92       	push	r14
    2144:	ff 92       	push	r15
    2146:	0f 93       	push	r16
    2148:	1f 93       	push	r17
    214a:	cf 93       	push	r28
    214c:	df 93       	push	r29
    214e:	00 d0       	rcall	.+0      	; 0x2150 <append_token+0xe>
    2150:	cd b7       	in	r28, 0x3d	; 61
    2152:	de b7       	in	r29, 0x3e	; 62
    2154:	7c 01       	movw	r14, r24
    2156:	8b 01       	movw	r16, r22
    2158:	da 01       	movw	r26, r20
    215a:	8c 91       	ld	r24, X
    215c:	87 32       	cpi	r24, 0x27	; 39
    215e:	e1 f1       	breq	.+120    	; 0x21d8 <append_token+0x96>
    2160:	88 37       	cpi	r24, 0x78	; 120
    2162:	39 f0       	breq	.+14     	; 0x2172 <append_token+0x30>
    2164:	82 32       	cpi	r24, 0x22	; 34
    2166:	09 f0       	breq	.+2      	; 0x216a <append_token+0x28>
    2168:	5b c0       	rjmp	.+182    	; 0x2220 <append_token+0xde>
    216a:	fa 01       	movw	r30, r20
    216c:	31 96       	adiw	r30, 0x01	; 1
    216e:	9e ef       	ldi	r25, 0xFE	; 254
    2170:	2e c0       	rjmp	.+92     	; 0x21ce <append_token+0x8c>
    2172:	ce 01       	movw	r24, r28
    2174:	01 96       	adiw	r24, 0x01	; 1
    2176:	9f 93       	push	r25
    2178:	8f 93       	push	r24
    217a:	8b e5       	ldi	r24, 0x5B	; 91
    217c:	91 e0       	ldi	r25, 0x01	; 1
    217e:	9f 93       	push	r25
    2180:	8f 93       	push	r24
    2182:	4f 5f       	subi	r20, 0xFF	; 255
    2184:	5f 4f       	sbci	r21, 0xFF	; 255
    2186:	5f 93       	push	r21
    2188:	4f 93       	push	r20
    218a:	0e 94 31 23 	call	0x4662	; 0x4662 <sscanf>
    218e:	0f 90       	pop	r0
    2190:	0f 90       	pop	r0
    2192:	0f 90       	pop	r0
    2194:	0f 90       	pop	r0
    2196:	0f 90       	pop	r0
    2198:	0f 90       	pop	r0
    219a:	81 11       	cpse	r24, r1
    219c:	02 c0       	rjmp	.+4      	; 0x21a2 <append_token+0x60>
    219e:	80 e0       	ldi	r24, 0x00	; 0
    21a0:	64 c0       	rjmp	.+200    	; 0x226a <append_token+0x128>
    21a2:	29 81       	ldd	r18, Y+1	; 0x01
    21a4:	3a 81       	ldd	r19, Y+2	; 0x02
    21a6:	2f 3f       	cpi	r18, 0xFF	; 255
    21a8:	31 05       	cpc	r19, r1
    21aa:	09 f0       	breq	.+2      	; 0x21ae <append_token+0x6c>
    21ac:	08 f4       	brcc	.+2      	; 0x21b0 <append_token+0x6e>
    21ae:	56 c0       	rjmp	.+172    	; 0x225c <append_token+0x11a>
    21b0:	f6 cf       	rjmp	.-20     	; 0x219e <append_token+0x5c>
    21b2:	d8 01       	movw	r26, r16
    21b4:	2c 91       	ld	r18, X
    21b6:	d7 01       	movw	r26, r14
    21b8:	a2 0f       	add	r26, r18
    21ba:	b1 1d       	adc	r27, r1
    21bc:	8c 93       	st	X, r24
    21be:	d8 01       	movw	r26, r16
    21c0:	8c 91       	ld	r24, X
    21c2:	8f 5f       	subi	r24, 0xFF	; 255
    21c4:	8c 93       	st	X, r24
    21c6:	88 23       	and	r24, r24
    21c8:	51 f3       	breq	.-44     	; 0x219e <append_token+0x5c>
    21ca:	91 50       	subi	r25, 0x01	; 1
    21cc:	19 f0       	breq	.+6      	; 0x21d4 <append_token+0x92>
    21ce:	81 91       	ld	r24, Z+
    21d0:	81 11       	cpse	r24, r1
    21d2:	ef cf       	rjmp	.-34     	; 0x21b2 <append_token+0x70>
    21d4:	81 e0       	ldi	r24, 0x01	; 1
    21d6:	49 c0       	rjmp	.+146    	; 0x226a <append_token+0x128>
    21d8:	ce 01       	movw	r24, r28
    21da:	01 96       	adiw	r24, 0x01	; 1
    21dc:	9f 93       	push	r25
    21de:	8f 93       	push	r24
    21e0:	8e e5       	ldi	r24, 0x5E	; 94
    21e2:	91 e0       	ldi	r25, 0x01	; 1
    21e4:	9f 93       	push	r25
    21e6:	8f 93       	push	r24
    21e8:	4f 5f       	subi	r20, 0xFF	; 255
    21ea:	5f 4f       	sbci	r21, 0xFF	; 255
    21ec:	5f 93       	push	r21
    21ee:	4f 93       	push	r20
    21f0:	0e 94 31 23 	call	0x4662	; 0x4662 <sscanf>
    21f4:	0f 90       	pop	r0
    21f6:	0f 90       	pop	r0
    21f8:	0f 90       	pop	r0
    21fa:	0f 90       	pop	r0
    21fc:	0f 90       	pop	r0
    21fe:	0f 90       	pop	r0
    2200:	88 23       	and	r24, r24
    2202:	69 f2       	breq	.-102    	; 0x219e <append_token+0x5c>
    2204:	f8 01       	movw	r30, r16
    2206:	90 81       	ld	r25, Z
    2208:	f7 01       	movw	r30, r14
    220a:	e9 0f       	add	r30, r25
    220c:	f1 1d       	adc	r31, r1
    220e:	99 81       	ldd	r25, Y+1	; 0x01
    2210:	90 83       	st	Z, r25
    2212:	d8 01       	movw	r26, r16
    2214:	9c 91       	ld	r25, X
    2216:	9f 5f       	subi	r25, 0xFF	; 255
    2218:	9c 93       	st	X, r25
    221a:	91 11       	cpse	r25, r1
    221c:	26 c0       	rjmp	.+76     	; 0x226a <append_token+0x128>
    221e:	bf cf       	rjmp	.-130    	; 0x219e <append_token+0x5c>
    2220:	ce 01       	movw	r24, r28
    2222:	01 96       	adiw	r24, 0x01	; 1
    2224:	9f 93       	push	r25
    2226:	8f 93       	push	r24
    2228:	81 e6       	ldi	r24, 0x61	; 97
    222a:	91 e0       	ldi	r25, 0x01	; 1
    222c:	9f 93       	push	r25
    222e:	8f 93       	push	r24
    2230:	5f 93       	push	r21
    2232:	4f 93       	push	r20
    2234:	0e 94 31 23 	call	0x4662	; 0x4662 <sscanf>
    2238:	0f 90       	pop	r0
    223a:	0f 90       	pop	r0
    223c:	0f 90       	pop	r0
    223e:	0f 90       	pop	r0
    2240:	0f 90       	pop	r0
    2242:	0f 90       	pop	r0
    2244:	88 23       	and	r24, r24
    2246:	09 f4       	brne	.+2      	; 0x224a <append_token+0x108>
    2248:	aa cf       	rjmp	.-172    	; 0x219e <append_token+0x5c>
    224a:	29 81       	ldd	r18, Y+1	; 0x01
    224c:	3a 81       	ldd	r19, Y+2	; 0x02
    224e:	a9 01       	movw	r20, r18
    2250:	40 58       	subi	r20, 0x80	; 128
    2252:	5f 4f       	sbci	r21, 0xFF	; 255
    2254:	40 38       	cpi	r20, 0x80	; 128
    2256:	51 40       	sbci	r21, 0x01	; 1
    2258:	08 f0       	brcs	.+2      	; 0x225c <append_token+0x11a>
    225a:	a1 cf       	rjmp	.-190    	; 0x219e <append_token+0x5c>
    225c:	f8 01       	movw	r30, r16
    225e:	90 81       	ld	r25, Z
    2260:	f7 01       	movw	r30, r14
    2262:	e9 0f       	add	r30, r25
    2264:	f1 1d       	adc	r31, r1
    2266:	20 83       	st	Z, r18
    2268:	d4 cf       	rjmp	.-88     	; 0x2212 <append_token+0xd0>
    226a:	0f 90       	pop	r0
    226c:	0f 90       	pop	r0
    226e:	df 91       	pop	r29
    2270:	cf 91       	pop	r28
    2272:	1f 91       	pop	r17
    2274:	0f 91       	pop	r16
    2276:	ff 90       	pop	r15
    2278:	ef 90       	pop	r14
    227a:	08 95       	ret

0000227c <sendI2C>:
    227c:	21 e0       	ldi	r18, 0x01	; 1
    227e:	0c 94 7b 0f 	jmp	0x1ef6	; 0x1ef6 <i2c_send_data>

00002282 <parse_i2c_command>:
    2282:	0f 93       	push	r16
    2284:	1f 93       	push	r17
    2286:	cf 93       	push	r28
    2288:	df 93       	push	r29
    228a:	cd b7       	in	r28, 0x3d	; 61
    228c:	de b7       	in	r29, 0x3e	; 62
    228e:	c5 50       	subi	r28, 0x05	; 5
    2290:	d1 40       	sbci	r29, 0x01	; 1
    2292:	0f b6       	in	r0, 0x3f	; 63
    2294:	f8 94       	cli
    2296:	de bf       	out	0x3e, r29	; 62
    2298:	0f be       	out	0x3f, r0	; 63
    229a:	cd bf       	out	0x3d, r28	; 61
    229c:	8c 01       	movw	r16, r24
    229e:	cb 5f       	subi	r28, 0xFB	; 251
    22a0:	de 4f       	sbci	r29, 0xFE	; 254
    22a2:	18 82       	st	Y, r1
    22a4:	c5 50       	subi	r28, 0x05	; 5
    22a6:	d1 40       	sbci	r29, 0x01	; 1
    22a8:	8c e2       	ldi	r24, 0x2C	; 44
    22aa:	90 e0       	ldi	r25, 0x00	; 0
    22ac:	cd 5f       	subi	r28, 0xFD	; 253
    22ae:	de 4f       	sbci	r29, 0xFE	; 254
    22b0:	99 83       	std	Y+1, r25	; 0x01
    22b2:	88 83       	st	Y, r24
    22b4:	c3 50       	subi	r28, 0x03	; 3
    22b6:	d1 40       	sbci	r29, 0x01	; 1
    22b8:	62 30       	cpi	r22, 0x02	; 2
    22ba:	08 f4       	brcc	.+2      	; 0x22be <parse_i2c_command+0x3c>
    22bc:	57 c0       	rjmp	.+174    	; 0x236c <parse_i2c_command+0xea>
    22be:	f8 01       	movw	r30, r16
    22c0:	80 81       	ld	r24, Z
    22c2:	86 32       	cpi	r24, 0x26	; 38
    22c4:	09 f0       	breq	.+2      	; 0x22c8 <parse_i2c_command+0x46>
    22c6:	52 c0       	rjmp	.+164    	; 0x236c <parse_i2c_command+0xea>
    22c8:	c8 01       	movw	r24, r16
    22ca:	0e 94 a1 1f 	call	0x3f42	; 0x3f42 <suart_puts>
    22ce:	8d e0       	ldi	r24, 0x0D	; 13
    22d0:	0e 94 64 1f 	call	0x3ec8	; 0x3ec8 <suart_putc>
    22d4:	be 01       	movw	r22, r28
    22d6:	6d 5f       	subi	r22, 0xFD	; 253
    22d8:	7e 4f       	sbci	r23, 0xFE	; 254
    22da:	c8 01       	movw	r24, r16
    22dc:	01 96       	adiw	r24, 0x01	; 1
    22de:	0e 94 cb 22 	call	0x4596	; 0x4596 <strtok>
    22e2:	00 97       	sbiw	r24, 0x00	; 0
    22e4:	09 f4       	brne	.+2      	; 0x22e8 <parse_i2c_command+0x66>
    22e6:	42 c0       	rjmp	.+132    	; 0x236c <parse_i2c_command+0xea>
    22e8:	8e 01       	movw	r16, r28
    22ea:	0f 5f       	subi	r16, 0xFF	; 255
    22ec:	1e 4f       	sbci	r17, 0xFE	; 254
    22ee:	1f 93       	push	r17
    22f0:	0f 93       	push	r16
    22f2:	24 e6       	ldi	r18, 0x64	; 100
    22f4:	31 e0       	ldi	r19, 0x01	; 1
    22f6:	3f 93       	push	r19
    22f8:	2f 93       	push	r18
    22fa:	9f 93       	push	r25
    22fc:	8f 93       	push	r24
    22fe:	0e 94 31 23 	call	0x4662	; 0x4662 <sscanf>
    2302:	f8 01       	movw	r30, r16
    2304:	20 81       	ld	r18, Z
    2306:	31 81       	ldd	r19, Z+1	; 0x01
    2308:	0f 90       	pop	r0
    230a:	0f 90       	pop	r0
    230c:	0f 90       	pop	r0
    230e:	0f 90       	pop	r0
    2310:	0f 90       	pop	r0
    2312:	0f 90       	pop	r0
    2314:	2f 3f       	cpi	r18, 0xFF	; 255
    2316:	31 05       	cpc	r19, r1
    2318:	48 f5       	brcc	.+82     	; 0x236c <parse_i2c_command+0xea>
    231a:	18 2f       	mov	r17, r24
    231c:	02 2f       	mov	r16, r18
    231e:	27 fd       	sbrc	r18, 7
    2320:	25 c0       	rjmp	.+74     	; 0x236c <parse_i2c_command+0xea>
    2322:	11 23       	and	r17, r17
    2324:	19 f1       	breq	.+70     	; 0x236c <parse_i2c_command+0xea>
    2326:	be 01       	movw	r22, r28
    2328:	6d 5f       	subi	r22, 0xFD	; 253
    232a:	7e 4f       	sbci	r23, 0xFE	; 254
    232c:	80 e0       	ldi	r24, 0x00	; 0
    232e:	90 e0       	ldi	r25, 0x00	; 0
    2330:	0e 94 cb 22 	call	0x4596	; 0x4596 <strtok>
    2334:	ac 01       	movw	r20, r24
    2336:	00 97       	sbiw	r24, 0x00	; 0
    2338:	49 f0       	breq	.+18     	; 0x234c <parse_i2c_command+0xca>
    233a:	be 01       	movw	r22, r28
    233c:	6b 5f       	subi	r22, 0xFB	; 251
    233e:	7e 4f       	sbci	r23, 0xFE	; 254
    2340:	ce 01       	movw	r24, r28
    2342:	01 96       	adiw	r24, 0x01	; 1
    2344:	0e 94 a1 10 	call	0x2142	; 0x2142 <append_token>
    2348:	18 2f       	mov	r17, r24
    234a:	eb cf       	rjmp	.-42     	; 0x2322 <parse_i2c_command+0xa0>
    234c:	11 23       	and	r17, r17
    234e:	71 f0       	breq	.+28     	; 0x236c <parse_i2c_command+0xea>
    2350:	cb 5f       	subi	r28, 0xFB	; 251
    2352:	de 4f       	sbci	r29, 0xFE	; 254
    2354:	48 81       	ld	r20, Y
    2356:	c5 50       	subi	r28, 0x05	; 5
    2358:	d1 40       	sbci	r29, 0x01	; 1
    235a:	44 23       	and	r20, r20
    235c:	39 f0       	breq	.+14     	; 0x236c <parse_i2c_command+0xea>
    235e:	be 01       	movw	r22, r28
    2360:	6f 5f       	subi	r22, 0xFF	; 255
    2362:	7f 4f       	sbci	r23, 0xFF	; 255
    2364:	80 2f       	mov	r24, r16
    2366:	0e 94 3e 11 	call	0x227c	; 0x227c <sendI2C>
    236a:	08 c0       	rjmp	.+16     	; 0x237c <parse_i2c_command+0xfa>
    236c:	80 91 6e 02 	lds	r24, 0x026E
    2370:	88 23       	and	r24, r24
    2372:	21 f0       	breq	.+8      	; 0x237c <parse_i2c_command+0xfa>
    2374:	88 ea       	ldi	r24, 0xA8	; 168
    2376:	92 e0       	ldi	r25, 0x02	; 2
    2378:	0e 94 8d 1c 	call	0x391a	; 0x391a <serial_puts_p>
    237c:	cb 5f       	subi	r28, 0xFB	; 251
    237e:	de 4f       	sbci	r29, 0xFE	; 254
    2380:	0f b6       	in	r0, 0x3f	; 63
    2382:	f8 94       	cli
    2384:	de bf       	out	0x3e, r29	; 62
    2386:	0f be       	out	0x3f, r0	; 63
    2388:	cd bf       	out	0x3d, r28	; 61
    238a:	df 91       	pop	r29
    238c:	cf 91       	pop	r28
    238e:	1f 91       	pop	r17
    2390:	0f 91       	pop	r16
    2392:	08 95       	ret

00002394 <open_command>:
    2394:	cf 93       	push	r28
    2396:	81 11       	cpse	r24, r1
    2398:	0a c0       	rjmp	.+20     	; 0x23ae <open_command+0x1a>
    239a:	c1 e0       	ldi	r28, 0x01	; 1
    239c:	68 ee       	ldi	r22, 0xE8	; 232
    239e:	73 e0       	ldi	r23, 0x03	; 3
    23a0:	8c 2f       	mov	r24, r28
    23a2:	0e 94 da 1c 	call	0x39b4	; 0x39b4 <servo_set>
    23a6:	cf 5f       	subi	r28, 0xFF	; 255
    23a8:	cb 30       	cpi	r28, 0x0B	; 11
    23aa:	c1 f7       	brne	.-16     	; 0x239c <open_command+0x8>
    23ac:	1e c0       	rjmp	.+60     	; 0x23ea <open_command+0x56>
    23ae:	8b 30       	cpi	r24, 0x0B	; 11
    23b0:	28 f4       	brcc	.+10     	; 0x23bc <open_command+0x28>
    23b2:	68 ee       	ldi	r22, 0xE8	; 232
    23b4:	73 e0       	ldi	r23, 0x03	; 3
    23b6:	cf 91       	pop	r28
    23b8:	0c 94 da 1c 	jmp	0x39b4	; 0x39b4 <servo_set>
    23bc:	8b 30       	cpi	r24, 0x0B	; 11
    23be:	51 f4       	brne	.+20     	; 0x23d4 <open_command+0x40>
    23c0:	c7 e0       	ldi	r28, 0x07	; 7
    23c2:	68 ee       	ldi	r22, 0xE8	; 232
    23c4:	73 e0       	ldi	r23, 0x03	; 3
    23c6:	8c 2f       	mov	r24, r28
    23c8:	0e 94 da 1c 	call	0x39b4	; 0x39b4 <servo_set>
    23cc:	cf 5f       	subi	r28, 0xFF	; 255
    23ce:	cb 30       	cpi	r28, 0x0B	; 11
    23d0:	c1 f7       	brne	.-16     	; 0x23c2 <open_command+0x2e>
    23d2:	0b c0       	rjmp	.+22     	; 0x23ea <open_command+0x56>
    23d4:	8c 30       	cpi	r24, 0x0C	; 12
    23d6:	49 f4       	brne	.+18     	; 0x23ea <open_command+0x56>
    23d8:	c1 e0       	ldi	r28, 0x01	; 1
    23da:	68 ee       	ldi	r22, 0xE8	; 232
    23dc:	73 e0       	ldi	r23, 0x03	; 3
    23de:	8c 2f       	mov	r24, r28
    23e0:	0e 94 da 1c 	call	0x39b4	; 0x39b4 <servo_set>
    23e4:	cf 5f       	subi	r28, 0xFF	; 255
    23e6:	c7 30       	cpi	r28, 0x07	; 7
    23e8:	c1 f7       	brne	.-16     	; 0x23da <open_command+0x46>
    23ea:	cf 91       	pop	r28
    23ec:	08 95       	ret

000023ee <close_command>:
    23ee:	cf 93       	push	r28
    23f0:	df 93       	push	r29
    23f2:	81 11       	cpse	r24, r1
    23f4:	16 c0       	rjmp	.+44     	; 0x2422 <close_command+0x34>
    23f6:	e3 eb       	ldi	r30, 0xB3	; 179
    23f8:	f2 e0       	ldi	r31, 0x02	; 2
    23fa:	11 92       	st	Z+, r1
    23fc:	82 e0       	ldi	r24, 0x02	; 2
    23fe:	ed 3b       	cpi	r30, 0xBD	; 189
    2400:	f8 07       	cpc	r31, r24
    2402:	d9 f7       	brne	.-10     	; 0x23fa <close_command+0xc>
    2404:	0e 94 4e 1a 	call	0x349c	; 0x349c <seq_stopsequence>
    2408:	8d e1       	ldi	r24, 0x1D	; 29
    240a:	91 e0       	ldi	r25, 0x01	; 1
    240c:	0e 94 06 1a 	call	0x340c	; 0x340c <seq_loadspeed>
    2410:	62 e0       	ldi	r22, 0x02	; 2
    2412:	8a e2       	ldi	r24, 0x2A	; 42
    2414:	96 e0       	ldi	r25, 0x06	; 6
    2416:	0e 94 1c 1a 	call	0x3438	; 0x3438 <seq_loadsequence>
    241a:	df 91       	pop	r29
    241c:	cf 91       	pop	r28
    241e:	0c 94 44 1a 	jmp	0x3488	; 0x3488 <seq_startsequence>
    2422:	8b 30       	cpi	r24, 0x0B	; 11
    2424:	a8 f4       	brcc	.+42     	; 0x2450 <close_command+0x62>
    2426:	c8 2f       	mov	r28, r24
    2428:	d0 e0       	ldi	r29, 0x00	; 0
    242a:	21 97       	sbiw	r28, 0x01	; 1
    242c:	fe 01       	movw	r30, r28
    242e:	ed 54       	subi	r30, 0x4D	; 77
    2430:	fd 4f       	sbci	r31, 0xFD	; 253
    2432:	10 82       	st	Z, r1
    2434:	60 ed       	ldi	r22, 0xD0	; 208
    2436:	77 e0       	ldi	r23, 0x07	; 7
    2438:	0e 94 da 1c 	call	0x39b4	; 0x39b4 <servo_set>
    243c:	81 e2       	ldi	r24, 0x21	; 33
    243e:	90 e0       	ldi	r25, 0x00	; 0
    2440:	90 93 be 02 	sts	0x02BE, r25
    2444:	80 93 bd 02 	sts	0x02BD, r24
    2448:	c1 54       	subi	r28, 0x41	; 65
    244a:	dd 4f       	sbci	r29, 0xFD	; 253
    244c:	81 e0       	ldi	r24, 0x01	; 1
    244e:	88 83       	st	Y, r24
    2450:	df 91       	pop	r29
    2452:	cf 91       	pop	r28
    2454:	08 95       	ret

00002456 <rc_command>:
    2456:	8b 30       	cpi	r24, 0x0B	; 11
    2458:	50 f4       	brcc	.+20     	; 0x246e <rc_command+0x18>
    245a:	81 11       	cpse	r24, r1
    245c:	02 c0       	rjmp	.+4      	; 0x2462 <rc_command+0xc>
    245e:	0c 94 16 10 	jmp	0x202c	; 0x202c <rc_command.part.0>
    2462:	e8 2f       	mov	r30, r24
    2464:	f0 e0       	ldi	r31, 0x00	; 0
    2466:	ee 54       	subi	r30, 0x4E	; 78
    2468:	fd 4f       	sbci	r31, 0xFD	; 253
    246a:	81 e0       	ldi	r24, 0x01	; 1
    246c:	80 83       	st	Z, r24
    246e:	08 95       	ret

00002470 <stop_command>:
    2470:	1f 93       	push	r17
    2472:	cf 93       	push	r28
    2474:	df 93       	push	r29
    2476:	8b 30       	cpi	r24, 0x0B	; 11
    2478:	d8 f4       	brcc	.+54     	; 0x24b0 <stop_command+0x40>
    247a:	81 11       	cpse	r24, r1
    247c:	0d c0       	rjmp	.+26     	; 0x2498 <stop_command+0x28>
    247e:	c3 eb       	ldi	r28, 0xB3	; 179
    2480:	d2 e0       	ldi	r29, 0x02	; 2
    2482:	11 e0       	ldi	r17, 0x01	; 1
    2484:	19 92       	st	Y+, r1
    2486:	6f ef       	ldi	r22, 0xFF	; 255
    2488:	7f ef       	ldi	r23, 0xFF	; 255
    248a:	81 2f       	mov	r24, r17
    248c:	0e 94 da 1c 	call	0x39b4	; 0x39b4 <servo_set>
    2490:	1f 5f       	subi	r17, 0xFF	; 255
    2492:	1b 30       	cpi	r17, 0x0B	; 11
    2494:	b9 f7       	brne	.-18     	; 0x2484 <stop_command+0x14>
    2496:	0c c0       	rjmp	.+24     	; 0x24b0 <stop_command+0x40>
    2498:	e8 2f       	mov	r30, r24
    249a:	f0 e0       	ldi	r31, 0x00	; 0
    249c:	ee 54       	subi	r30, 0x4E	; 78
    249e:	fd 4f       	sbci	r31, 0xFD	; 253
    24a0:	10 82       	st	Z, r1
    24a2:	6f ef       	ldi	r22, 0xFF	; 255
    24a4:	7f ef       	ldi	r23, 0xFF	; 255
    24a6:	df 91       	pop	r29
    24a8:	cf 91       	pop	r28
    24aa:	1f 91       	pop	r17
    24ac:	0c 94 da 1c 	jmp	0x39b4	; 0x39b4 <servo_set>
    24b0:	df 91       	pop	r29
    24b2:	cf 91       	pop	r28
    24b4:	1f 91       	pop	r17
    24b6:	08 95       	ret

000024b8 <hold_command>:
    24b8:	8b 30       	cpi	r24, 0x0B	; 11
    24ba:	78 f4       	brcc	.+30     	; 0x24da <hold_command+0x22>
    24bc:	81 11       	cpse	r24, r1
    24be:	08 c0       	rjmp	.+16     	; 0x24d0 <hold_command+0x18>
    24c0:	e3 eb       	ldi	r30, 0xB3	; 179
    24c2:	f2 e0       	ldi	r31, 0x02	; 2
    24c4:	11 92       	st	Z+, r1
    24c6:	82 e0       	ldi	r24, 0x02	; 2
    24c8:	ed 3b       	cpi	r30, 0xBD	; 189
    24ca:	f8 07       	cpc	r31, r24
    24cc:	d9 f7       	brne	.-10     	; 0x24c4 <hold_command+0xc>
    24ce:	08 95       	ret
    24d0:	e8 2f       	mov	r30, r24
    24d2:	f0 e0       	ldi	r31, 0x00	; 0
    24d4:	ee 54       	subi	r30, 0x4E	; 78
    24d6:	fd 4f       	sbci	r31, 0xFD	; 253
    24d8:	10 82       	st	Z, r1
    24da:	08 95       	ret

000024dc <init_jedi>:
    24dc:	0e 94 01 1a 	call	0x3402	; 0x3402 <seq_remove_completion_callback>
    24e0:	8e e4       	ldi	r24, 0x4E	; 78
    24e2:	91 e0       	ldi	r25, 0x01	; 1
    24e4:	0e 94 a1 1f 	call	0x3f42	; 0x3f42 <suart_puts>
    24e8:	2f ef       	ldi	r18, 0xFF	; 255
    24ea:	81 ee       	ldi	r24, 0xE1	; 225
    24ec:	94 e0       	ldi	r25, 0x04	; 4
    24ee:	21 50       	subi	r18, 0x01	; 1
    24f0:	80 40       	sbci	r24, 0x00	; 0
    24f2:	90 40       	sbci	r25, 0x00	; 0
    24f4:	e1 f7       	brne	.-8      	; 0x24ee <init_jedi+0x12>
    24f6:	00 c0       	rjmp	.+0      	; 0x24f8 <init_jedi+0x1c>
    24f8:	00 00       	nop
    24fa:	85 e5       	ldi	r24, 0x55	; 85
    24fc:	91 e0       	ldi	r25, 0x01	; 1
    24fe:	0e 94 a1 1f 	call	0x3f42	; 0x3f42 <suart_puts>
    2502:	2f ef       	ldi	r18, 0xFF	; 255
    2504:	89 ef       	ldi	r24, 0xF9	; 249
    2506:	90 e0       	ldi	r25, 0x00	; 0
    2508:	21 50       	subi	r18, 0x01	; 1
    250a:	80 40       	sbci	r24, 0x00	; 0
    250c:	90 40       	sbci	r25, 0x00	; 0
    250e:	e1 f7       	brne	.-8      	; 0x2508 <init_jedi+0x2c>
    2510:	00 c0       	rjmp	.+0      	; 0x2512 <init_jedi+0x36>
    2512:	00 00       	nop
    2514:	08 95       	ret

00002516 <HPOff>:
    2516:	8e e4       	ldi	r24, 0x4E	; 78
    2518:	91 e0       	ldi	r25, 0x01	; 1
    251a:	0c 94 a1 1f 	jmp	0x3f42	; 0x3f42 <suart_puts>

0000251e <HPOn>:
    251e:	87 e6       	ldi	r24, 0x67	; 103
    2520:	91 e0       	ldi	r25, 0x01	; 1
    2522:	0c 94 a1 1f 	jmp	0x3f42	; 0x3f42 <suart_puts>

00002526 <HPStop>:
    2526:	8e e6       	ldi	r24, 0x6E	; 110
    2528:	91 e0       	ldi	r25, 0x01	; 1
    252a:	0c 94 a1 1f 	jmp	0x3f42	; 0x3f42 <suart_puts>

0000252e <HPRandom>:
    252e:	85 e7       	ldi	r24, 0x75	; 117
    2530:	91 e0       	ldi	r25, 0x01	; 1
    2532:	0c 94 a1 1f 	jmp	0x3f42	; 0x3f42 <suart_puts>

00002536 <HPFlicker>:
    2536:	0f 93       	push	r16
    2538:	1f 93       	push	r17
    253a:	cf 93       	push	r28
    253c:	df 93       	push	r29
    253e:	cd b7       	in	r28, 0x3d	; 61
    2540:	de b7       	in	r29, 0x3e	; 62
    2542:	27 97       	sbiw	r28, 0x07	; 7
    2544:	0f b6       	in	r0, 0x3f	; 63
    2546:	f8 94       	cli
    2548:	de bf       	out	0x3e, r29	; 62
    254a:	0f be       	out	0x3f, r0	; 63
    254c:	cd bf       	out	0x3d, r28	; 61
    254e:	1f 92       	push	r1
    2550:	8f 93       	push	r24
    2552:	8c e7       	ldi	r24, 0x7C	; 124
    2554:	91 e0       	ldi	r25, 0x01	; 1
    2556:	9f 93       	push	r25
    2558:	8f 93       	push	r24
    255a:	8e 01       	movw	r16, r28
    255c:	0f 5f       	subi	r16, 0xFF	; 255
    255e:	1f 4f       	sbci	r17, 0xFF	; 255
    2560:	1f 93       	push	r17
    2562:	0f 93       	push	r16
    2564:	0e 94 0f 23 	call	0x461e	; 0x461e <sprintf>
    2568:	c8 01       	movw	r24, r16
    256a:	0e 94 a1 1f 	call	0x3f42	; 0x3f42 <suart_puts>
    256e:	0f 90       	pop	r0
    2570:	0f 90       	pop	r0
    2572:	0f 90       	pop	r0
    2574:	0f 90       	pop	r0
    2576:	0f 90       	pop	r0
    2578:	0f 90       	pop	r0
    257a:	27 96       	adiw	r28, 0x07	; 7
    257c:	0f b6       	in	r0, 0x3f	; 63
    257e:	f8 94       	cli
    2580:	de bf       	out	0x3e, r29	; 62
    2582:	0f be       	out	0x3f, r0	; 63
    2584:	cd bf       	out	0x3d, r28	; 61
    2586:	df 91       	pop	r29
    2588:	cf 91       	pop	r28
    258a:	1f 91       	pop	r17
    258c:	0f 91       	pop	r16
    258e:	08 95       	ret

00002590 <HP1Flicker>:
    2590:	0f 93       	push	r16
    2592:	1f 93       	push	r17
    2594:	cf 93       	push	r28
    2596:	df 93       	push	r29
    2598:	cd b7       	in	r28, 0x3d	; 61
    259a:	de b7       	in	r29, 0x3e	; 62
    259c:	27 97       	sbiw	r28, 0x07	; 7
    259e:	0f b6       	in	r0, 0x3f	; 63
    25a0:	f8 94       	cli
    25a2:	de bf       	out	0x3e, r29	; 62
    25a4:	0f be       	out	0x3f, r0	; 63
    25a6:	cd bf       	out	0x3d, r28	; 61
    25a8:	1f 92       	push	r1
    25aa:	8f 93       	push	r24
    25ac:	85 e8       	ldi	r24, 0x85	; 133
    25ae:	91 e0       	ldi	r25, 0x01	; 1
    25b0:	9f 93       	push	r25
    25b2:	8f 93       	push	r24
    25b4:	8e 01       	movw	r16, r28
    25b6:	0f 5f       	subi	r16, 0xFF	; 255
    25b8:	1f 4f       	sbci	r17, 0xFF	; 255
    25ba:	1f 93       	push	r17
    25bc:	0f 93       	push	r16
    25be:	0e 94 0f 23 	call	0x461e	; 0x461e <sprintf>
    25c2:	c8 01       	movw	r24, r16
    25c4:	0e 94 a1 1f 	call	0x3f42	; 0x3f42 <suart_puts>
    25c8:	0f 90       	pop	r0
    25ca:	0f 90       	pop	r0
    25cc:	0f 90       	pop	r0
    25ce:	0f 90       	pop	r0
    25d0:	0f 90       	pop	r0
    25d2:	0f 90       	pop	r0
    25d4:	27 96       	adiw	r28, 0x07	; 7
    25d6:	0f b6       	in	r0, 0x3f	; 63
    25d8:	f8 94       	cli
    25da:	de bf       	out	0x3e, r29	; 62
    25dc:	0f be       	out	0x3f, r0	; 63
    25de:	cd bf       	out	0x3d, r28	; 61
    25e0:	df 91       	pop	r29
    25e2:	cf 91       	pop	r28
    25e4:	1f 91       	pop	r17
    25e6:	0f 91       	pop	r16
    25e8:	08 95       	ret

000025ea <HPFlash>:
    25ea:	0f 93       	push	r16
    25ec:	1f 93       	push	r17
    25ee:	cf 93       	push	r28
    25f0:	df 93       	push	r29
    25f2:	cd b7       	in	r28, 0x3d	; 61
    25f4:	de b7       	in	r29, 0x3e	; 62
    25f6:	27 97       	sbiw	r28, 0x07	; 7
    25f8:	0f b6       	in	r0, 0x3f	; 63
    25fa:	f8 94       	cli
    25fc:	de bf       	out	0x3e, r29	; 62
    25fe:	0f be       	out	0x3f, r0	; 63
    2600:	cd bf       	out	0x3d, r28	; 61
    2602:	1f 92       	push	r1
    2604:	8f 93       	push	r24
    2606:	8e e8       	ldi	r24, 0x8E	; 142
    2608:	91 e0       	ldi	r25, 0x01	; 1
    260a:	9f 93       	push	r25
    260c:	8f 93       	push	r24
    260e:	8e 01       	movw	r16, r28
    2610:	0f 5f       	subi	r16, 0xFF	; 255
    2612:	1f 4f       	sbci	r17, 0xFF	; 255
    2614:	1f 93       	push	r17
    2616:	0f 93       	push	r16
    2618:	0e 94 0f 23 	call	0x461e	; 0x461e <sprintf>
    261c:	c8 01       	movw	r24, r16
    261e:	0e 94 a1 1f 	call	0x3f42	; 0x3f42 <suart_puts>
    2622:	0f 90       	pop	r0
    2624:	0f 90       	pop	r0
    2626:	0f 90       	pop	r0
    2628:	0f 90       	pop	r0
    262a:	0f 90       	pop	r0
    262c:	0f 90       	pop	r0
    262e:	27 96       	adiw	r28, 0x07	; 7
    2630:	0f b6       	in	r0, 0x3f	; 63
    2632:	f8 94       	cli
    2634:	de bf       	out	0x3e, r29	; 62
    2636:	0f be       	out	0x3f, r0	; 63
    2638:	cd bf       	out	0x3d, r28	; 61
    263a:	df 91       	pop	r29
    263c:	cf 91       	pop	r28
    263e:	1f 91       	pop	r17
    2640:	0f 91       	pop	r16
    2642:	08 95       	ret

00002644 <HP1RC>:
    2644:	87 e9       	ldi	r24, 0x97	; 151
    2646:	91 e0       	ldi	r25, 0x01	; 1
    2648:	0c 94 a1 1f 	jmp	0x3f42	; 0x3f42 <suart_puts>

0000264c <MagicFlash>:
    264c:	0f 93       	push	r16
    264e:	1f 93       	push	r17
    2650:	cf 93       	push	r28
    2652:	df 93       	push	r29
    2654:	cd b7       	in	r28, 0x3d	; 61
    2656:	de b7       	in	r29, 0x3e	; 62
    2658:	27 97       	sbiw	r28, 0x07	; 7
    265a:	0f b6       	in	r0, 0x3f	; 63
    265c:	f8 94       	cli
    265e:	de bf       	out	0x3e, r29	; 62
    2660:	0f be       	out	0x3f, r0	; 63
    2662:	cd bf       	out	0x3d, r28	; 61
    2664:	1f 92       	push	r1
    2666:	8f 93       	push	r24
    2668:	8e e9       	ldi	r24, 0x9E	; 158
    266a:	91 e0       	ldi	r25, 0x01	; 1
    266c:	9f 93       	push	r25
    266e:	8f 93       	push	r24
    2670:	8e 01       	movw	r16, r28
    2672:	0f 5f       	subi	r16, 0xFF	; 255
    2674:	1f 4f       	sbci	r17, 0xFF	; 255
    2676:	1f 93       	push	r17
    2678:	0f 93       	push	r16
    267a:	0e 94 0f 23 	call	0x461e	; 0x461e <sprintf>
    267e:	c8 01       	movw	r24, r16
    2680:	0e 94 a1 1f 	call	0x3f42	; 0x3f42 <suart_puts>
    2684:	0f 90       	pop	r0
    2686:	0f 90       	pop	r0
    2688:	0f 90       	pop	r0
    268a:	0f 90       	pop	r0
    268c:	0f 90       	pop	r0
    268e:	0f 90       	pop	r0
    2690:	27 96       	adiw	r28, 0x07	; 7
    2692:	0f b6       	in	r0, 0x3f	; 63
    2694:	f8 94       	cli
    2696:	de bf       	out	0x3e, r29	; 62
    2698:	0f be       	out	0x3f, r0	; 63
    269a:	cd bf       	out	0x3d, r28	; 61
    269c:	df 91       	pop	r29
    269e:	cf 91       	pop	r28
    26a0:	1f 91       	pop	r17
    26a2:	0f 91       	pop	r16
    26a4:	08 95       	ret

000026a6 <MagicFlicker>:
    26a6:	0f 93       	push	r16
    26a8:	1f 93       	push	r17
    26aa:	cf 93       	push	r28
    26ac:	df 93       	push	r29
    26ae:	cd b7       	in	r28, 0x3d	; 61
    26b0:	de b7       	in	r29, 0x3e	; 62
    26b2:	27 97       	sbiw	r28, 0x07	; 7
    26b4:	0f b6       	in	r0, 0x3f	; 63
    26b6:	f8 94       	cli
    26b8:	de bf       	out	0x3e, r29	; 62
    26ba:	0f be       	out	0x3f, r0	; 63
    26bc:	cd bf       	out	0x3d, r28	; 61
    26be:	1f 92       	push	r1
    26c0:	8f 93       	push	r24
    26c2:	87 ea       	ldi	r24, 0xA7	; 167
    26c4:	91 e0       	ldi	r25, 0x01	; 1
    26c6:	9f 93       	push	r25
    26c8:	8f 93       	push	r24
    26ca:	8e 01       	movw	r16, r28
    26cc:	0f 5f       	subi	r16, 0xFF	; 255
    26ce:	1f 4f       	sbci	r17, 0xFF	; 255
    26d0:	1f 93       	push	r17
    26d2:	0f 93       	push	r16
    26d4:	0e 94 0f 23 	call	0x461e	; 0x461e <sprintf>
    26d8:	c8 01       	movw	r24, r16
    26da:	0e 94 a1 1f 	call	0x3f42	; 0x3f42 <suart_puts>
    26de:	2f ef       	ldi	r18, 0xFF	; 255
    26e0:	80 e7       	ldi	r24, 0x70	; 112
    26e2:	92 e0       	ldi	r25, 0x02	; 2
    26e4:	21 50       	subi	r18, 0x01	; 1
    26e6:	80 40       	sbci	r24, 0x00	; 0
    26e8:	90 40       	sbci	r25, 0x00	; 0
    26ea:	e1 f7       	brne	.-8      	; 0x26e4 <MagicFlicker+0x3e>
    26ec:	00 c0       	rjmp	.+0      	; 0x26ee <MagicFlicker+0x48>
    26ee:	00 00       	nop
    26f0:	0f 90       	pop	r0
    26f2:	0f 90       	pop	r0
    26f4:	0f 90       	pop	r0
    26f6:	0f 90       	pop	r0
    26f8:	0f 90       	pop	r0
    26fa:	0f 90       	pop	r0
    26fc:	27 96       	adiw	r28, 0x07	; 7
    26fe:	0f b6       	in	r0, 0x3f	; 63
    2700:	f8 94       	cli
    2702:	de bf       	out	0x3e, r29	; 62
    2704:	0f be       	out	0x3f, r0	; 63
    2706:	cd bf       	out	0x3d, r28	; 61
    2708:	df 91       	pop	r29
    270a:	cf 91       	pop	r28
    270c:	1f 91       	pop	r17
    270e:	0f 91       	pop	r16
    2710:	08 95       	ret

00002712 <DisplayScream>:
    2712:	80 eb       	ldi	r24, 0xB0	; 176
    2714:	91 e0       	ldi	r25, 0x01	; 1
    2716:	0e 94 a1 1f 	call	0x3f42	; 0x3f42 <suart_puts>
    271a:	2f ef       	ldi	r18, 0xFF	; 255
    271c:	81 ee       	ldi	r24, 0xE1	; 225
    271e:	94 e0       	ldi	r25, 0x04	; 4
    2720:	21 50       	subi	r18, 0x01	; 1
    2722:	80 40       	sbci	r24, 0x00	; 0
    2724:	90 40       	sbci	r25, 0x00	; 0
    2726:	e1 f7       	brne	.-8      	; 0x2720 <DisplayScream+0xe>
    2728:	00 c0       	rjmp	.+0      	; 0x272a <DisplayScream+0x18>
    272a:	00 00       	nop
    272c:	08 95       	ret

0000272e <DisplayNormal>:
    272e:	85 e5       	ldi	r24, 0x55	; 85
    2730:	91 e0       	ldi	r25, 0x01	; 1
    2732:	0c 94 a1 1f 	jmp	0x3f42	; 0x3f42 <suart_puts>

00002736 <DisplayFlash4>:
    2736:	86 eb       	ldi	r24, 0xB6	; 182
    2738:	91 e0       	ldi	r25, 0x01	; 1
    273a:	0e 94 a1 1f 	call	0x3f42	; 0x3f42 <suart_puts>
    273e:	2f ef       	ldi	r18, 0xFF	; 255
    2740:	81 ee       	ldi	r24, 0xE1	; 225
    2742:	94 e0       	ldi	r25, 0x04	; 4
    2744:	21 50       	subi	r18, 0x01	; 1
    2746:	80 40       	sbci	r24, 0x00	; 0
    2748:	90 40       	sbci	r25, 0x00	; 0
    274a:	e1 f7       	brne	.-8      	; 0x2744 <DisplayFlash4+0xe>
    274c:	00 c0       	rjmp	.+0      	; 0x274e <DisplayFlash4+0x18>
    274e:	00 00       	nop
    2750:	8c eb       	ldi	r24, 0xBC	; 188
    2752:	91 e0       	ldi	r25, 0x01	; 1
    2754:	0e 94 a1 1f 	call	0x3f42	; 0x3f42 <suart_puts>
    2758:	2f ef       	ldi	r18, 0xFF	; 255
    275a:	80 e7       	ldi	r24, 0x70	; 112
    275c:	92 e0       	ldi	r25, 0x02	; 2
    275e:	21 50       	subi	r18, 0x01	; 1
    2760:	80 40       	sbci	r24, 0x00	; 0
    2762:	90 40       	sbci	r25, 0x00	; 0
    2764:	e1 f7       	brne	.-8      	; 0x275e <DisplayFlash4+0x28>
    2766:	00 c0       	rjmp	.+0      	; 0x2768 <DisplayFlash4+0x32>
    2768:	00 00       	nop
    276a:	08 95       	ret

0000276c <DisplaySpectrum>:
    276c:	82 ec       	ldi	r24, 0xC2	; 194
    276e:	91 e0       	ldi	r25, 0x01	; 1
    2770:	0e 94 a1 1f 	call	0x3f42	; 0x3f42 <suart_puts>
    2774:	2f ef       	ldi	r18, 0xFF	; 255
    2776:	83 ec       	ldi	r24, 0xC3	; 195
    2778:	99 e0       	ldi	r25, 0x09	; 9
    277a:	21 50       	subi	r18, 0x01	; 1
    277c:	80 40       	sbci	r24, 0x00	; 0
    277e:	90 40       	sbci	r25, 0x00	; 0
    2780:	e1 f7       	brne	.-8      	; 0x277a <DisplaySpectrum+0xe>
    2782:	00 c0       	rjmp	.+0      	; 0x2784 <DisplaySpectrum+0x18>
    2784:	00 00       	nop
    2786:	08 95       	ret

00002788 <DisplayShortCircuit>:
    2788:	89 ec       	ldi	r24, 0xC9	; 201
    278a:	91 e0       	ldi	r25, 0x01	; 1
    278c:	0e 94 a1 1f 	call	0x3f42	; 0x3f42 <suart_puts>
    2790:	2f ef       	ldi	r18, 0xFF	; 255
    2792:	81 ee       	ldi	r24, 0xE1	; 225
    2794:	94 e0       	ldi	r25, 0x04	; 4
    2796:	21 50       	subi	r18, 0x01	; 1
    2798:	80 40       	sbci	r24, 0x00	; 0
    279a:	90 40       	sbci	r25, 0x00	; 0
    279c:	e1 f7       	brne	.-8      	; 0x2796 <DisplayShortCircuit+0xe>
    279e:	00 c0       	rjmp	.+0      	; 0x27a0 <DisplayShortCircuit+0x18>
    27a0:	00 00       	nop
    27a2:	8f ec       	ldi	r24, 0xCF	; 207
    27a4:	91 e0       	ldi	r25, 0x01	; 1
    27a6:	0e 94 a1 1f 	call	0x3f42	; 0x3f42 <suart_puts>
    27aa:	2f ef       	ldi	r18, 0xFF	; 255
    27ac:	89 ef       	ldi	r24, 0xF9	; 249
    27ae:	90 e0       	ldi	r25, 0x00	; 0
    27b0:	21 50       	subi	r18, 0x01	; 1
    27b2:	80 40       	sbci	r24, 0x00	; 0
    27b4:	90 40       	sbci	r25, 0x00	; 0
    27b6:	e1 f7       	brne	.-8      	; 0x27b0 <DisplayShortCircuit+0x28>
    27b8:	00 c0       	rjmp	.+0      	; 0x27ba <DisplayShortCircuit+0x32>
    27ba:	00 00       	nop
    27bc:	08 95       	ret

000027be <DisplayLeia>:
    27be:	86 ed       	ldi	r24, 0xD6	; 214
    27c0:	91 e0       	ldi	r25, 0x01	; 1
    27c2:	0e 94 a1 1f 	call	0x3f42	; 0x3f42 <suart_puts>
    27c6:	2f ef       	ldi	r18, 0xFF	; 255
    27c8:	81 ee       	ldi	r24, 0xE1	; 225
    27ca:	94 e0       	ldi	r25, 0x04	; 4
    27cc:	21 50       	subi	r18, 0x01	; 1
    27ce:	80 40       	sbci	r24, 0x00	; 0
    27d0:	90 40       	sbci	r25, 0x00	; 0
    27d2:	e1 f7       	brne	.-8      	; 0x27cc <DisplayLeia+0xe>
    27d4:	00 c0       	rjmp	.+0      	; 0x27d6 <DisplayLeia+0x18>
    27d6:	00 00       	nop
    27d8:	08 95       	ret

000027da <RLDSetMessage>:
    27da:	cf 93       	push	r28
    27dc:	df 93       	push	r29
    27de:	ec 01       	movw	r28, r24
    27e0:	8c ed       	ldi	r24, 0xDC	; 220
    27e2:	91 e0       	ldi	r25, 0x01	; 1
    27e4:	0e 94 a1 1f 	call	0x3f42	; 0x3f42 <suart_puts>
    27e8:	ce 01       	movw	r24, r28
    27ea:	0e 94 a1 1f 	call	0x3f42	; 0x3f42 <suart_puts>
    27ee:	8d e0       	ldi	r24, 0x0D	; 13
    27f0:	0e 94 64 1f 	call	0x3ec8	; 0x3ec8 <suart_putc>
    27f4:	2f ef       	ldi	r18, 0xFF	; 255
    27f6:	84 e3       	ldi	r24, 0x34	; 52
    27f8:	9c e0       	ldi	r25, 0x0C	; 12
    27fa:	21 50       	subi	r18, 0x01	; 1
    27fc:	80 40       	sbci	r24, 0x00	; 0
    27fe:	90 40       	sbci	r25, 0x00	; 0
    2800:	e1 f7       	brne	.-8      	; 0x27fa <RLDSetMessage+0x20>
    2802:	00 c0       	rjmp	.+0      	; 0x2804 <RLDSetMessage+0x2a>
    2804:	00 00       	nop
    2806:	df 91       	pop	r29
    2808:	cf 91       	pop	r28
    280a:	08 95       	ret

0000280c <RLDDisplayMessage>:
    280c:	80 ee       	ldi	r24, 0xE0	; 224
    280e:	91 e0       	ldi	r25, 0x01	; 1
    2810:	0e 94 a1 1f 	call	0x3f42	; 0x3f42 <suart_puts>
    2814:	2f ef       	ldi	r18, 0xFF	; 255
    2816:	81 ee       	ldi	r24, 0xE1	; 225
    2818:	94 e0       	ldi	r25, 0x04	; 4
    281a:	21 50       	subi	r18, 0x01	; 1
    281c:	80 40       	sbci	r24, 0x00	; 0
    281e:	90 40       	sbci	r25, 0x00	; 0
    2820:	e1 f7       	brne	.-8      	; 0x281a <RLDDisplayMessage+0xe>
    2822:	00 c0       	rjmp	.+0      	; 0x2824 <RLDDisplayMessage+0x18>
    2824:	00 00       	nop
    2826:	08 95       	ret

00002828 <SoundWaveBye>:
    2828:	62 e0       	ldi	r22, 0x02	; 2
    282a:	88 ee       	ldi	r24, 0xE8	; 232
    282c:	91 e0       	ldi	r25, 0x01	; 1
    282e:	0c 94 6a 10 	jmp	0x20d4	; 0x20d4 <parse_sound_command>

00002832 <SoundScream>:
    2832:	62 e0       	ldi	r22, 0x02	; 2
    2834:	8c ee       	ldi	r24, 0xEC	; 236
    2836:	91 e0       	ldi	r25, 0x01	; 1
    2838:	0c 94 6a 10 	jmp	0x20d4	; 0x20d4 <parse_sound_command>

0000283c <SoundWave>:
    283c:	64 e0       	ldi	r22, 0x04	; 4
    283e:	8f ee       	ldi	r24, 0xEF	; 239
    2840:	91 e0       	ldi	r25, 0x01	; 1
    2842:	0c 94 6a 10 	jmp	0x20d4	; 0x20d4 <parse_sound_command>

00002846 <SoundDisco>:
    2846:	62 e0       	ldi	r22, 0x02	; 2
    2848:	84 ef       	ldi	r24, 0xF4	; 244
    284a:	91 e0       	ldi	r25, 0x01	; 1
    284c:	0c 94 6a 10 	jmp	0x20d4	; 0x20d4 <parse_sound_command>

00002850 <SoundFastWave>:
    2850:	63 e0       	ldi	r22, 0x03	; 3
    2852:	87 ef       	ldi	r24, 0xF7	; 247
    2854:	91 e0       	ldi	r25, 0x01	; 1
    2856:	0c 94 6a 10 	jmp	0x20d4	; 0x20d4 <parse_sound_command>

0000285a <SoundOpenWave>:
    285a:	63 e0       	ldi	r22, 0x03	; 3
    285c:	8b ef       	ldi	r24, 0xFB	; 251
    285e:	91 e0       	ldi	r25, 0x01	; 1
    2860:	0c 94 6a 10 	jmp	0x20d4	; 0x20d4 <parse_sound_command>

00002864 <SoundBeepCantina>:
    2864:	62 e0       	ldi	r22, 0x02	; 2
    2866:	8f ef       	ldi	r24, 0xFF	; 255
    2868:	91 e0       	ldi	r25, 0x01	; 1
    286a:	0c 94 6a 10 	jmp	0x20d4	; 0x20d4 <parse_sound_command>

0000286e <SoundFaint>:
    286e:	62 e0       	ldi	r22, 0x02	; 2
    2870:	82 e0       	ldi	r24, 0x02	; 2
    2872:	92 e0       	ldi	r25, 0x02	; 2
    2874:	0c 94 6a 10 	jmp	0x20d4	; 0x20d4 <parse_sound_command>

00002878 <SoundCantina>:
    2878:	62 e0       	ldi	r22, 0x02	; 2
    287a:	85 e0       	ldi	r24, 0x05	; 5
    287c:	92 e0       	ldi	r25, 0x02	; 2
    287e:	0c 94 6a 10 	jmp	0x20d4	; 0x20d4 <parse_sound_command>

00002882 <SoundLeia>:
    2882:	62 e0       	ldi	r22, 0x02	; 2
    2884:	88 e0       	ldi	r24, 0x08	; 8
    2886:	92 e0       	ldi	r25, 0x02	; 2
    2888:	0c 94 6a 10 	jmp	0x20d4	; 0x20d4 <parse_sound_command>

0000288c <Sound>:
    288c:	0f 93       	push	r16
    288e:	1f 93       	push	r17
    2890:	cf 93       	push	r28
    2892:	df 93       	push	r29
    2894:	cd b7       	in	r28, 0x3d	; 61
    2896:	de b7       	in	r29, 0x3e	; 62
    2898:	27 97       	sbiw	r28, 0x07	; 7
    289a:	0f b6       	in	r0, 0x3f	; 63
    289c:	f8 94       	cli
    289e:	de bf       	out	0x3e, r29	; 62
    28a0:	0f be       	out	0x3f, r0	; 63
    28a2:	cd bf       	out	0x3d, r28	; 61
    28a4:	1f 92       	push	r1
    28a6:	6f 93       	push	r22
    28a8:	1f 92       	push	r1
    28aa:	8f 93       	push	r24
    28ac:	8b e0       	ldi	r24, 0x0B	; 11
    28ae:	92 e0       	ldi	r25, 0x02	; 2
    28b0:	9f 93       	push	r25
    28b2:	8f 93       	push	r24
    28b4:	8e 01       	movw	r16, r28
    28b6:	0f 5f       	subi	r16, 0xFF	; 255
    28b8:	1f 4f       	sbci	r17, 0xFF	; 255
    28ba:	1f 93       	push	r17
    28bc:	0f 93       	push	r16
    28be:	0e 94 0f 23 	call	0x461e	; 0x461e <sprintf>
    28c2:	f8 01       	movw	r30, r16
    28c4:	01 90       	ld	r0, Z+
    28c6:	00 20       	and	r0, r0
    28c8:	e9 f7       	brne	.-6      	; 0x28c4 <Sound+0x38>
    28ca:	bf 01       	movw	r22, r30
    28cc:	61 50       	subi	r22, 0x01	; 1
    28ce:	71 09       	sbc	r23, r1
    28d0:	60 1b       	sub	r22, r16
    28d2:	71 0b       	sbc	r23, r17
    28d4:	c8 01       	movw	r24, r16
    28d6:	0e 94 6a 10 	call	0x20d4	; 0x20d4 <parse_sound_command>
    28da:	0f b6       	in	r0, 0x3f	; 63
    28dc:	f8 94       	cli
    28de:	de bf       	out	0x3e, r29	; 62
    28e0:	0f be       	out	0x3f, r0	; 63
    28e2:	cd bf       	out	0x3d, r28	; 61
    28e4:	27 96       	adiw	r28, 0x07	; 7
    28e6:	0f b6       	in	r0, 0x3f	; 63
    28e8:	f8 94       	cli
    28ea:	de bf       	out	0x3e, r29	; 62
    28ec:	0f be       	out	0x3f, r0	; 63
    28ee:	cd bf       	out	0x3d, r28	; 61
    28f0:	df 91       	pop	r29
    28f2:	cf 91       	pop	r28
    28f4:	1f 91       	pop	r17
    28f6:	0f 91       	pop	r16
    28f8:	08 95       	ret

000028fa <SoundRandom>:
    28fa:	62 e0       	ldi	r22, 0x02	; 2
    28fc:	83 e1       	ldi	r24, 0x13	; 19
    28fe:	92 e0       	ldi	r25, 0x02	; 2
    2900:	0c 94 6a 10 	jmp	0x20d4	; 0x20d4 <parse_sound_command>

00002904 <SoundStop>:
    2904:	62 e0       	ldi	r22, 0x02	; 2
    2906:	86 e1       	ldi	r24, 0x16	; 22
    2908:	92 e0       	ldi	r25, 0x02	; 2
    290a:	0c 94 6a 10 	jmp	0x20d4	; 0x20d4 <parse_sound_command>

0000290e <sequence_command>:
    290e:	0f 93       	push	r16
    2910:	1f 93       	push	r17
    2912:	cf 93       	push	r28
    2914:	df 93       	push	r29
    2916:	cd b7       	in	r28, 0x3d	; 61
    2918:	de b7       	in	r29, 0x3e	; 62
    291a:	a3 97       	sbiw	r28, 0x23	; 35
    291c:	0f b6       	in	r0, 0x3f	; 63
    291e:	f8 94       	cli
    2920:	de bf       	out	0x3e, r29	; 62
    2922:	0f be       	out	0x3f, r0	; 63
    2924:	cd bf       	out	0x3d, r28	; 61
    2926:	48 2f       	mov	r20, r24
    2928:	50 e0       	ldi	r21, 0x00	; 0
    292a:	4a 33       	cpi	r20, 0x3A	; 58
    292c:	51 05       	cpc	r21, r1
    292e:	08 f0       	brcs	.+2      	; 0x2932 <sequence_command+0x24>
    2930:	41 c2       	rjmp	.+1154   	; 0x2db4 <sequence_command+0x4a6>
    2932:	fa 01       	movw	r30, r20
    2934:	ec 5c       	subi	r30, 0xCC	; 204
    2936:	ff 4f       	sbci	r31, 0xFF	; 255
    2938:	0c 94 be 21 	jmp	0x437c	; 0x437c <__tablejump2__>
    293c:	0e 94 4e 1a 	call	0x349c	; 0x349c <seq_stopsequence>
    2940:	8d e1       	ldi	r24, 0x1D	; 29
    2942:	91 e0       	ldi	r25, 0x01	; 1
    2944:	0e 94 06 1a 	call	0x340c	; 0x340c <seq_loadspeed>
    2948:	62 e0       	ldi	r22, 0x02	; 2
    294a:	8a e2       	ldi	r24, 0x2A	; 42
    294c:	96 e0       	ldi	r25, 0x06	; 6
    294e:	0e 94 1c 1a 	call	0x3438	; 0x3438 <seq_loadsequence>
    2952:	0e 94 44 1a 	call	0x3488	; 0x3488 <seq_startsequence>
    2956:	80 91 6d 02 	lds	r24, 0x026D
    295a:	88 23       	and	r24, r24
    295c:	09 f4       	brne	.+2      	; 0x2960 <sequence_command+0x52>
    295e:	46 c2       	rjmp	.+1164   	; 0x2dec <sequence_command+0x4de>
    2960:	88 e7       	ldi	r24, 0x78	; 120
    2962:	92 e0       	ldi	r25, 0x02	; 2
    2964:	1c c0       	rjmp	.+56     	; 0x299e <sequence_command+0x90>
    2966:	64 e0       	ldi	r22, 0x04	; 4
    2968:	8e ed       	ldi	r24, 0xDE	; 222
    296a:	97 e1       	ldi	r25, 0x17	; 23
    296c:	0e 94 1c 1a 	call	0x3438	; 0x3438 <seq_loadsequence>
    2970:	8d e1       	ldi	r24, 0x1D	; 29
    2972:	91 e0       	ldi	r25, 0x01	; 1
    2974:	0e 94 06 1a 	call	0x340c	; 0x340c <seq_loadspeed>
    2978:	0e 94 19 14 	call	0x2832	; 0x2832 <SoundScream>
    297c:	0e 94 89 13 	call	0x2712	; 0x2712 <DisplayScream>
    2980:	84 e0       	ldi	r24, 0x04	; 4
    2982:	0e 94 53 13 	call	0x26a6	; 0x26a6 <MagicFlicker>
    2986:	84 e0       	ldi	r24, 0x04	; 4
    2988:	0e 94 9b 12 	call	0x2536	; 0x2536 <HPFlicker>
    298c:	0e 94 44 1a 	call	0x3488	; 0x3488 <seq_startsequence>
    2990:	80 91 6d 02 	lds	r24, 0x026D
    2994:	88 23       	and	r24, r24
    2996:	09 f4       	brne	.+2      	; 0x299a <sequence_command+0x8c>
    2998:	29 c2       	rjmp	.+1106   	; 0x2dec <sequence_command+0x4de>
    299a:	8c e6       	ldi	r24, 0x6C	; 108
    299c:	92 e0       	ldi	r25, 0x02	; 2
    299e:	0e 94 8d 1c 	call	0x391a	; 0x391a <serial_puts_p>
    29a2:	24 c2       	rjmp	.+1096   	; 0x2dec <sequence_command+0x4de>
    29a4:	6d e0       	ldi	r22, 0x0D	; 13
    29a6:	8c ed       	ldi	r24, 0xDC	; 220
    29a8:	94 e1       	ldi	r25, 0x14	; 20
    29aa:	0e 94 1c 1a 	call	0x3438	; 0x3438 <seq_loadsequence>
    29ae:	0e 94 13 1a 	call	0x3426	; 0x3426 <seq_resetspeed>
    29b2:	84 e0       	ldi	r24, 0x04	; 4
    29b4:	0e 94 f5 12 	call	0x25ea	; 0x25ea <HPFlash>
    29b8:	0e 94 1e 14 	call	0x283c	; 0x283c <SoundWave>
    29bc:	0e 94 44 1a 	call	0x3488	; 0x3488 <seq_startsequence>
    29c0:	80 91 6d 02 	lds	r24, 0x026D
    29c4:	88 23       	and	r24, r24
    29c6:	09 f4       	brne	.+2      	; 0x29ca <sequence_command+0xbc>
    29c8:	11 c2       	rjmp	.+1058   	; 0x2dec <sequence_command+0x4de>
    29ca:	82 e6       	ldi	r24, 0x62	; 98
    29cc:	92 e0       	ldi	r25, 0x02	; 2
    29ce:	e7 cf       	rjmp	.-50     	; 0x299e <sequence_command+0x90>
    29d0:	68 e1       	ldi	r22, 0x18	; 24
    29d2:	8c ec       	ldi	r24, 0xCC	; 204
    29d4:	92 e1       	ldi	r25, 0x12	; 18
    29d6:	0e 94 1c 1a 	call	0x3438	; 0x3438 <seq_loadsequence>
    29da:	0e 94 13 1a 	call	0x3426	; 0x3426 <seq_resetspeed>
    29de:	0e 94 9b 13 	call	0x2736	; 0x2736 <DisplayFlash4>
    29e2:	84 e0       	ldi	r24, 0x04	; 4
    29e4:	0e 94 9b 12 	call	0x2536	; 0x2536 <HPFlicker>
    29e8:	0e 94 28 14 	call	0x2850	; 0x2850 <SoundFastWave>
    29ec:	0e 94 44 1a 	call	0x3488	; 0x3488 <seq_startsequence>
    29f0:	80 91 6d 02 	lds	r24, 0x026D
    29f4:	88 23       	and	r24, r24
    29f6:	09 f4       	brne	.+2      	; 0x29fa <sequence_command+0xec>
    29f8:	f9 c1       	rjmp	.+1010   	; 0x2dec <sequence_command+0x4de>
    29fa:	83 e5       	ldi	r24, 0x53	; 83
    29fc:	92 e0       	ldi	r25, 0x02	; 2
    29fe:	cf cf       	rjmp	.-98     	; 0x299e <sequence_command+0x90>
    2a00:	66 e1       	ldi	r22, 0x16	; 22
    2a02:	88 ee       	ldi	r24, 0xE8	; 232
    2a04:	90 e1       	ldi	r25, 0x10	; 16
    2a06:	0e 94 1c 1a 	call	0x3438	; 0x3438 <seq_loadsequence>
    2a0a:	0e 94 13 1a 	call	0x3426	; 0x3426 <seq_resetspeed>
    2a0e:	85 e0       	ldi	r24, 0x05	; 5
    2a10:	0e 94 f5 12 	call	0x25ea	; 0x25ea <HPFlash>
    2a14:	0e 94 2d 14 	call	0x285a	; 0x285a <SoundOpenWave>
    2a18:	0e 94 44 1a 	call	0x3488	; 0x3488 <seq_startsequence>
    2a1c:	80 91 6d 02 	lds	r24, 0x026D
    2a20:	88 23       	and	r24, r24
    2a22:	09 f4       	brne	.+2      	; 0x2a26 <sequence_command+0x118>
    2a24:	e3 c1       	rjmp	.+966    	; 0x2dec <sequence_command+0x4de>
    2a26:	8e e3       	ldi	r24, 0x3E	; 62
    2a28:	92 e0       	ldi	r25, 0x02	; 2
    2a2a:	b9 cf       	rjmp	.-142    	; 0x299e <sequence_command+0x90>
    2a2c:	8a ef       	ldi	r24, 0xFA	; 250
    2a2e:	9f e0       	ldi	r25, 0x0F	; 15
    2a30:	0e 94 fc 19 	call	0x33f8	; 0x33f8 <seq_add_completion_callback>
    2a34:	61 e2       	ldi	r22, 0x21	; 33
    2a36:	82 e1       	ldi	r24, 0x12	; 18
    2a38:	9e e0       	ldi	r25, 0x0E	; 14
    2a3a:	0e 94 1c 1a 	call	0x3438	; 0x3438 <seq_loadsequence>
    2a3e:	8d e1       	ldi	r24, 0x1D	; 29
    2a40:	91 e0       	ldi	r25, 0x01	; 1
    2a42:	0e 94 06 1a 	call	0x340c	; 0x340c <seq_loadspeed>
    2a46:	0e 94 b6 13 	call	0x276c	; 0x276c <DisplaySpectrum>
    2a4a:	81 e1       	ldi	r24, 0x11	; 17
    2a4c:	0e 94 f5 12 	call	0x25ea	; 0x25ea <HPFlash>
    2a50:	0e 94 32 14 	call	0x2864	; 0x2864 <SoundBeepCantina>
    2a54:	0e 94 44 1a 	call	0x3488	; 0x3488 <seq_startsequence>
    2a58:	80 91 6d 02 	lds	r24, 0x026D
    2a5c:	88 23       	and	r24, r24
    2a5e:	09 f4       	brne	.+2      	; 0x2a62 <sequence_command+0x154>
    2a60:	c5 c1       	rjmp	.+906    	; 0x2dec <sequence_command+0x4de>
    2a62:	83 e2       	ldi	r24, 0x23	; 35
    2a64:	92 e0       	ldi	r25, 0x02	; 2
    2a66:	9b cf       	rjmp	.-202    	; 0x299e <sequence_command+0x90>
    2a68:	64 e0       	ldi	r22, 0x04	; 4
    2a6a:	86 e8       	ldi	r24, 0x86	; 134
    2a6c:	97 e1       	ldi	r25, 0x17	; 23
    2a6e:	0e 94 1c 1a 	call	0x3438	; 0x3438 <seq_loadsequence>
    2a72:	89 e0       	ldi	r24, 0x09	; 9
    2a74:	91 e0       	ldi	r25, 0x01	; 1
    2a76:	0e 94 06 1a 	call	0x340c	; 0x340c <seq_loadspeed>
    2a7a:	0e 94 c4 13 	call	0x2788	; 0x2788 <DisplayShortCircuit>
    2a7e:	0e 94 37 14 	call	0x286e	; 0x286e <SoundFaint>
    2a82:	8a e0       	ldi	r24, 0x0A	; 10
    2a84:	0e 94 53 13 	call	0x26a6	; 0x26a6 <MagicFlicker>
    2a88:	8a e0       	ldi	r24, 0x0A	; 10
    2a8a:	0e 94 9b 12 	call	0x2536	; 0x2536 <HPFlicker>
    2a8e:	0e 94 44 1a 	call	0x3488	; 0x3488 <seq_startsequence>
    2a92:	80 91 6d 02 	lds	r24, 0x026D
    2a96:	88 23       	and	r24, r24
    2a98:	09 f4       	brne	.+2      	; 0x2a9c <sequence_command+0x18e>
    2a9a:	a8 c1       	rjmp	.+848    	; 0x2dec <sequence_command+0x4de>
    2a9c:	80 e1       	ldi	r24, 0x10	; 16
    2a9e:	92 e0       	ldi	r25, 0x02	; 2
    2aa0:	7e cf       	rjmp	.-260    	; 0x299e <sequence_command+0x90>
    2aa2:	8a ef       	ldi	r24, 0xFA	; 250
    2aa4:	9f e0       	ldi	r25, 0x0F	; 15
    2aa6:	0e 94 fc 19 	call	0x33f8	; 0x33f8 <seq_add_completion_callback>
    2aaa:	6a e5       	ldi	r22, 0x5A	; 90
    2aac:	86 e5       	ldi	r24, 0x56	; 86
    2aae:	96 e0       	ldi	r25, 0x06	; 6
    2ab0:	0e 94 1c 1a 	call	0x3438	; 0x3438 <seq_loadsequence>
    2ab4:	0e 94 13 1a 	call	0x3426	; 0x3426 <seq_resetspeed>
    2ab8:	0e 94 3c 14 	call	0x2878	; 0x2878 <SoundCantina>
    2abc:	0e 94 b6 13 	call	0x276c	; 0x276c <DisplaySpectrum>
    2ac0:	8e e2       	ldi	r24, 0x2E	; 46
    2ac2:	0e 94 9b 12 	call	0x2536	; 0x2536 <HPFlicker>
    2ac6:	0e 94 44 1a 	call	0x3488	; 0x3488 <seq_startsequence>
    2aca:	80 91 6d 02 	lds	r24, 0x026D
    2ace:	88 23       	and	r24, r24
    2ad0:	09 f4       	brne	.+2      	; 0x2ad4 <sequence_command+0x1c6>
    2ad2:	8c c1       	rjmp	.+792    	; 0x2dec <sequence_command+0x4de>
    2ad4:	8d ef       	ldi	r24, 0xFD	; 253
    2ad6:	91 e0       	ldi	r25, 0x01	; 1
    2ad8:	62 cf       	rjmp	.-316    	; 0x299e <sequence_command+0x90>
    2ada:	0e 94 4e 1a 	call	0x349c	; 0x349c <seq_stopsequence>
    2ade:	8d e1       	ldi	r24, 0x1D	; 29
    2ae0:	91 e0       	ldi	r25, 0x01	; 1
    2ae2:	0e 94 06 1a 	call	0x340c	; 0x340c <seq_loadspeed>
    2ae6:	62 e0       	ldi	r22, 0x02	; 2
    2ae8:	8a e2       	ldi	r24, 0x2A	; 42
    2aea:	96 e0       	ldi	r25, 0x06	; 6
    2aec:	0e 94 1c 1a 	call	0x3438	; 0x3438 <seq_loadsequence>
    2af0:	0e 94 44 1a 	call	0x3488	; 0x3488 <seq_startsequence>
    2af4:	0e 94 22 13 	call	0x2644	; 0x2644 <HP1RC>
    2af8:	0e 94 41 14 	call	0x2882	; 0x2882 <SoundLeia>
    2afc:	82 e2       	ldi	r24, 0x22	; 34
    2afe:	0e 94 c8 12 	call	0x2590	; 0x2590 <HP1Flicker>
    2b02:	0e 94 df 13 	call	0x27be	; 0x27be <DisplayLeia>
    2b06:	80 91 6d 02 	lds	r24, 0x026D
    2b0a:	88 23       	and	r24, r24
    2b0c:	09 f4       	brne	.+2      	; 0x2b10 <sequence_command+0x202>
    2b0e:	6e c1       	rjmp	.+732    	; 0x2dec <sequence_command+0x4de>
    2b10:	8b ee       	ldi	r24, 0xEB	; 235
    2b12:	91 e0       	ldi	r25, 0x01	; 1
    2b14:	44 cf       	rjmp	.-376    	; 0x299e <sequence_command+0x90>
    2b16:	8a ef       	ldi	r24, 0xFA	; 250
    2b18:	9f e0       	ldi	r25, 0x0F	; 15
    2b1a:	0e 94 fc 19 	call	0x33f8	; 0x33f8 <seq_add_completion_callback>
    2b1e:	0e 94 13 1a 	call	0x3426	; 0x3426 <seq_resetspeed>
    2b22:	6a e1       	ldi	r22, 0x1A	; 26
    2b24:	8e ee       	ldi	r24, 0xEE	; 238
    2b26:	93 e0       	ldi	r25, 0x03	; 3
    2b28:	0e 94 1c 1a 	call	0x3438	; 0x3438 <seq_loadsequence>
    2b2c:	89 e1       	ldi	r24, 0x19	; 25
    2b2e:	92 e0       	ldi	r25, 0x02	; 2
    2b30:	0e 94 ed 13 	call	0x27da	; 0x27da <RLDSetMessage>
    2b34:	0e 94 b6 13 	call	0x276c	; 0x276c <DisplaySpectrum>
    2b38:	0e 94 06 14 	call	0x280c	; 0x280c <RLDDisplayMessage>
    2b3c:	0e 94 23 14 	call	0x2846	; 0x2846 <SoundDisco>
    2b40:	83 e6       	ldi	r24, 0x63	; 99
    2b42:	0e 94 9b 12 	call	0x2536	; 0x2536 <HPFlicker>
    2b46:	0e 94 44 1a 	call	0x3488	; 0x3488 <seq_startsequence>
    2b4a:	80 91 6d 02 	lds	r24, 0x026D
    2b4e:	88 23       	and	r24, r24
    2b50:	09 f4       	brne	.+2      	; 0x2b54 <sequence_command+0x246>
    2b52:	4c c1       	rjmp	.+664    	; 0x2dec <sequence_command+0x4de>
    2b54:	8a ed       	ldi	r24, 0xDA	; 218
    2b56:	91 e0       	ldi	r25, 0x01	; 1
    2b58:	22 cf       	rjmp	.-444    	; 0x299e <sequence_command+0x90>
    2b5a:	0e 94 4e 1a 	call	0x349c	; 0x349c <seq_stopsequence>
    2b5e:	8d e1       	ldi	r24, 0x1D	; 29
    2b60:	91 e0       	ldi	r25, 0x01	; 1
    2b62:	0e 94 06 1a 	call	0x340c	; 0x340c <seq_loadspeed>
    2b66:	62 e0       	ldi	r22, 0x02	; 2
    2b68:	8a e2       	ldi	r24, 0x2A	; 42
    2b6a:	96 e0       	ldi	r25, 0x06	; 6
    2b6c:	0e 94 1c 1a 	call	0x3438	; 0x3438 <seq_loadsequence>
    2b70:	0e 94 44 1a 	call	0x3488	; 0x3488 <seq_startsequence>
    2b74:	0e 94 6e 12 	call	0x24dc	; 0x24dc <init_jedi>
    2b78:	0e 94 93 12 	call	0x2526	; 0x2526 <HPStop>
    2b7c:	0e 94 82 14 	call	0x2904	; 0x2904 <SoundStop>
    2b80:	0e 94 13 1a 	call	0x3426	; 0x3426 <seq_resetspeed>
    2b84:	80 e0       	ldi	r24, 0x00	; 0
    2b86:	0e 94 38 12 	call	0x2470	; 0x2470 <stop_command>
    2b8a:	80 91 6d 02 	lds	r24, 0x026D
    2b8e:	88 23       	and	r24, r24
    2b90:	09 f4       	brne	.+2      	; 0x2b94 <sequence_command+0x286>
    2b92:	2c c1       	rjmp	.+600    	; 0x2dec <sequence_command+0x4de>
    2b94:	88 ec       	ldi	r24, 0xC8	; 200
    2b96:	91 e0       	ldi	r25, 0x01	; 1
    2b98:	02 cf       	rjmp	.-508    	; 0x299e <sequence_command+0x90>
    2b9a:	0e 94 4e 1a 	call	0x349c	; 0x349c <seq_stopsequence>
    2b9e:	8d e1       	ldi	r24, 0x1D	; 29
    2ba0:	91 e0       	ldi	r25, 0x01	; 1
    2ba2:	0e 94 06 1a 	call	0x340c	; 0x340c <seq_loadspeed>
    2ba6:	62 e0       	ldi	r22, 0x02	; 2
    2ba8:	8a e2       	ldi	r24, 0x2A	; 42
    2baa:	96 e0       	ldi	r25, 0x06	; 6
    2bac:	0e 94 1c 1a 	call	0x3438	; 0x3438 <seq_loadsequence>
    2bb0:	0e 94 44 1a 	call	0x3488	; 0x3488 <seq_startsequence>
    2bb4:	0e 94 6e 12 	call	0x24dc	; 0x24dc <init_jedi>
    2bb8:	0e 94 97 12 	call	0x252e	; 0x252e <HPRandom>
    2bbc:	0e 94 7d 14 	call	0x28fa	; 0x28fa <SoundRandom>
    2bc0:	0e 94 13 1a 	call	0x3426	; 0x3426 <seq_resetspeed>
    2bc4:	80 e0       	ldi	r24, 0x00	; 0
    2bc6:	0e 94 38 12 	call	0x2470	; 0x2470 <stop_command>
    2bca:	80 91 6d 02 	lds	r24, 0x026D
    2bce:	88 23       	and	r24, r24
    2bd0:	09 f4       	brne	.+2      	; 0x2bd4 <sequence_command+0x2c6>
    2bd2:	0c c1       	rjmp	.+536    	; 0x2dec <sequence_command+0x4de>
    2bd4:	81 eb       	ldi	r24, 0xB1	; 177
    2bd6:	91 e0       	ldi	r25, 0x01	; 1
    2bd8:	e2 ce       	rjmp	.-572    	; 0x299e <sequence_command+0x90>
    2bda:	81 e0       	ldi	r24, 0x01	; 1
    2bdc:	80 93 b9 02 	sts	0x02B9, r24
    2be0:	80 93 ba 02 	sts	0x02BA, r24
    2be4:	80 93 bb 02 	sts	0x02BB, r24
    2be8:	80 93 bc 02 	sts	0x02BC, r24
    2bec:	80 91 6d 02 	lds	r24, 0x026D
    2bf0:	88 23       	and	r24, r24
    2bf2:	09 f4       	brne	.+2      	; 0x2bf6 <sequence_command+0x2e8>
    2bf4:	fb c0       	rjmp	.+502    	; 0x2dec <sequence_command+0x4de>
    2bf6:	87 e9       	ldi	r24, 0x97	; 151
    2bf8:	91 e0       	ldi	r25, 0x01	; 1
    2bfa:	d1 ce       	rjmp	.-606    	; 0x299e <sequence_command+0x90>
    2bfc:	0e 94 4e 1a 	call	0x349c	; 0x349c <seq_stopsequence>
    2c00:	8d e1       	ldi	r24, 0x1D	; 29
    2c02:	91 e0       	ldi	r25, 0x01	; 1
    2c04:	0e 94 06 1a 	call	0x340c	; 0x340c <seq_loadspeed>
    2c08:	62 e0       	ldi	r22, 0x02	; 2
    2c0a:	8a e2       	ldi	r24, 0x2A	; 42
    2c0c:	96 e0       	ldi	r25, 0x06	; 6
    2c0e:	0e 94 1c 1a 	call	0x3438	; 0x3438 <seq_loadsequence>
    2c12:	0e 94 44 1a 	call	0x3488	; 0x3488 <seq_startsequence>
    2c16:	0e 94 6e 12 	call	0x24dc	; 0x24dc <init_jedi>
    2c1a:	0e 94 93 12 	call	0x2526	; 0x2526 <HPStop>
    2c1e:	0e 94 7d 14 	call	0x28fa	; 0x28fa <SoundRandom>
    2c22:	0e 94 13 1a 	call	0x3426	; 0x3426 <seq_resetspeed>
    2c26:	80 e0       	ldi	r24, 0x00	; 0
    2c28:	0e 94 38 12 	call	0x2470	; 0x2470 <stop_command>
    2c2c:	80 91 6d 02 	lds	r24, 0x026D
    2c30:	88 23       	and	r24, r24
    2c32:	09 f4       	brne	.+2      	; 0x2c36 <sequence_command+0x328>
    2c34:	db c0       	rjmp	.+438    	; 0x2dec <sequence_command+0x4de>
    2c36:	85 e8       	ldi	r24, 0x85	; 133
    2c38:	91 e0       	ldi	r25, 0x01	; 1
    2c3a:	b1 ce       	rjmp	.-670    	; 0x299e <sequence_command+0x90>
    2c3c:	0e 94 4e 1a 	call	0x349c	; 0x349c <seq_stopsequence>
    2c40:	8d e1       	ldi	r24, 0x1D	; 29
    2c42:	91 e0       	ldi	r25, 0x01	; 1
    2c44:	0e 94 06 1a 	call	0x340c	; 0x340c <seq_loadspeed>
    2c48:	62 e0       	ldi	r22, 0x02	; 2
    2c4a:	8a e2       	ldi	r24, 0x2A	; 42
    2c4c:	96 e0       	ldi	r25, 0x06	; 6
    2c4e:	0e 94 1c 1a 	call	0x3438	; 0x3438 <seq_loadsequence>
    2c52:	0e 94 44 1a 	call	0x3488	; 0x3488 <seq_startsequence>
    2c56:	0e 94 6e 12 	call	0x24dc	; 0x24dc <init_jedi>
    2c5a:	0e 94 97 12 	call	0x252e	; 0x252e <HPRandom>
    2c5e:	0e 94 8f 12 	call	0x251e	; 0x251e <HPOn>
    2c62:	0e 94 7d 14 	call	0x28fa	; 0x28fa <SoundRandom>
    2c66:	0e 94 13 1a 	call	0x3426	; 0x3426 <seq_resetspeed>
    2c6a:	80 e0       	ldi	r24, 0x00	; 0
    2c6c:	0e 94 38 12 	call	0x2470	; 0x2470 <stop_command>
    2c70:	80 91 6d 02 	lds	r24, 0x026D
    2c74:	88 23       	and	r24, r24
    2c76:	09 f4       	brne	.+2      	; 0x2c7a <sequence_command+0x36c>
    2c78:	b9 c0       	rjmp	.+370    	; 0x2dec <sequence_command+0x4de>
    2c7a:	81 e7       	ldi	r24, 0x71	; 113
    2c7c:	91 e0       	ldi	r25, 0x01	; 1
    2c7e:	8f ce       	rjmp	.-738    	; 0x299e <sequence_command+0x90>
    2c80:	0e 94 19 14 	call	0x2832	; 0x2832 <SoundScream>
    2c84:	0e 94 89 13 	call	0x2712	; 0x2712 <DisplayScream>
    2c88:	83 e0       	ldi	r24, 0x03	; 3
    2c8a:	0e 94 9b 12 	call	0x2536	; 0x2536 <HPFlicker>
    2c8e:	83 e0       	ldi	r24, 0x03	; 3
    2c90:	0e 94 53 13 	call	0x26a6	; 0x26a6 <MagicFlicker>
    2c94:	80 91 6d 02 	lds	r24, 0x026D
    2c98:	88 23       	and	r24, r24
    2c9a:	09 f4       	brne	.+2      	; 0x2c9e <sequence_command+0x390>
    2c9c:	a7 c0       	rjmp	.+334    	; 0x2dec <sequence_command+0x4de>
    2c9e:	8b e5       	ldi	r24, 0x5B	; 91
    2ca0:	91 e0       	ldi	r25, 0x01	; 1
    2ca2:	7d ce       	rjmp	.-774    	; 0x299e <sequence_command+0x90>
    2ca4:	6a e0       	ldi	r22, 0x0A	; 10
    2ca6:	8a ef       	ldi	r24, 0xFA	; 250
    2ca8:	95 e1       	ldi	r25, 0x15	; 21
    2caa:	0e 94 1c 1a 	call	0x3438	; 0x3438 <seq_loadsequence>
    2cae:	81 e3       	ldi	r24, 0x31	; 49
    2cb0:	91 e0       	ldi	r25, 0x01	; 1
    2cb2:	0e 94 06 1a 	call	0x340c	; 0x340c <seq_loadspeed>
    2cb6:	0e 94 19 14 	call	0x2832	; 0x2832 <SoundScream>
    2cba:	0e 94 89 13 	call	0x2712	; 0x2712 <DisplayScream>
    2cbe:	84 e0       	ldi	r24, 0x04	; 4
    2cc0:	0e 94 53 13 	call	0x26a6	; 0x26a6 <MagicFlicker>
    2cc4:	84 e0       	ldi	r24, 0x04	; 4
    2cc6:	0e 94 9b 12 	call	0x2536	; 0x2536 <HPFlicker>
    2cca:	0e 94 44 1a 	call	0x3488	; 0x3488 <seq_startsequence>
    2cce:	80 91 6d 02 	lds	r24, 0x026D
    2cd2:	88 23       	and	r24, r24
    2cd4:	09 f4       	brne	.+2      	; 0x2cd8 <sequence_command+0x3ca>
    2cd6:	8a c0       	rjmp	.+276    	; 0x2dec <sequence_command+0x4de>
    2cd8:	81 e1       	ldi	r24, 0x11	; 17
    2cda:	91 e0       	ldi	r25, 0x01	; 1
    2cdc:	60 ce       	rjmp	.-832    	; 0x299e <sequence_command+0x90>
    2cde:	68 e0       	ldi	r22, 0x08	; 8
    2ce0:	86 ed       	ldi	r24, 0xD6	; 214
    2ce2:	96 e1       	ldi	r25, 0x16	; 22
    2ce4:	0e 94 1c 1a 	call	0x3438	; 0x3438 <seq_loadsequence>
    2ce8:	81 e3       	ldi	r24, 0x31	; 49
    2cea:	91 e0       	ldi	r25, 0x01	; 1
    2cec:	0e 94 06 1a 	call	0x340c	; 0x340c <seq_loadspeed>
    2cf0:	0e 94 14 14 	call	0x2828	; 0x2828 <SoundWaveBye>
    2cf4:	82 e0       	ldi	r24, 0x02	; 2
    2cf6:	0e 94 53 13 	call	0x26a6	; 0x26a6 <MagicFlicker>
    2cfa:	82 e0       	ldi	r24, 0x02	; 2
    2cfc:	0e 94 9b 12 	call	0x2536	; 0x2536 <HPFlicker>
    2d00:	0e 94 44 1a 	call	0x3488	; 0x3488 <seq_startsequence>
    2d04:	80 91 6d 02 	lds	r24, 0x026D
    2d08:	88 23       	and	r24, r24
    2d0a:	09 f4       	brne	.+2      	; 0x2d0e <sequence_command+0x400>
    2d0c:	6f c0       	rjmp	.+222    	; 0x2dec <sequence_command+0x4de>
    2d0e:	8d ef       	ldi	r24, 0xFD	; 253
    2d10:	90 e0       	ldi	r25, 0x00	; 0
    2d12:	45 ce       	rjmp	.-886    	; 0x299e <sequence_command+0x90>
    2d14:	64 e0       	ldi	r22, 0x04	; 4
    2d16:	8e ed       	ldi	r24, 0xDE	; 222
    2d18:	97 e1       	ldi	r25, 0x17	; 23
    2d1a:	0e 94 1c 1a 	call	0x3438	; 0x3438 <seq_loadsequence>
    2d1e:	8d e1       	ldi	r24, 0x1D	; 29
    2d20:	91 e0       	ldi	r25, 0x01	; 1
    2d22:	0e 94 06 1a 	call	0x340c	; 0x340c <seq_loadspeed>
    2d26:	32 ce       	rjmp	.-924    	; 0x298c <sequence_command+0x7e>
    2d28:	6d e0       	ldi	r22, 0x0D	; 13
    2d2a:	8c ed       	ldi	r24, 0xDC	; 220
    2d2c:	94 e1       	ldi	r25, 0x14	; 20
    2d2e:	0e 94 1c 1a 	call	0x3438	; 0x3438 <seq_loadsequence>
    2d32:	0e 94 13 1a 	call	0x3426	; 0x3426 <seq_resetspeed>
    2d36:	42 ce       	rjmp	.-892    	; 0x29bc <sequence_command+0xae>
    2d38:	68 e1       	ldi	r22, 0x18	; 24
    2d3a:	8c ec       	ldi	r24, 0xCC	; 204
    2d3c:	92 e1       	ldi	r25, 0x12	; 18
    2d3e:	0e 94 1c 1a 	call	0x3438	; 0x3438 <seq_loadsequence>
    2d42:	0e 94 13 1a 	call	0x3426	; 0x3426 <seq_resetspeed>
    2d46:	52 ce       	rjmp	.-860    	; 0x29ec <sequence_command+0xde>
    2d48:	66 e1       	ldi	r22, 0x16	; 22
    2d4a:	88 ee       	ldi	r24, 0xE8	; 232
    2d4c:	90 e1       	ldi	r25, 0x10	; 16
    2d4e:	0e 94 1c 1a 	call	0x3438	; 0x3438 <seq_loadsequence>
    2d52:	0e 94 13 1a 	call	0x3426	; 0x3426 <seq_resetspeed>
    2d56:	60 ce       	rjmp	.-832    	; 0x2a18 <sequence_command+0x10a>
    2d58:	61 e2       	ldi	r22, 0x21	; 33
    2d5a:	82 e1       	ldi	r24, 0x12	; 18
    2d5c:	9e e0       	ldi	r25, 0x0E	; 14
    2d5e:	0e 94 1c 1a 	call	0x3438	; 0x3438 <seq_loadsequence>
    2d62:	8d e1       	ldi	r24, 0x1D	; 29
    2d64:	91 e0       	ldi	r25, 0x01	; 1
    2d66:	0e 94 06 1a 	call	0x340c	; 0x340c <seq_loadspeed>
    2d6a:	0e 94 44 1a 	call	0x3488	; 0x3488 <seq_startsequence>
    2d6e:	80 91 6d 02 	lds	r24, 0x026D
    2d72:	88 23       	and	r24, r24
    2d74:	d9 f1       	breq	.+118    	; 0x2dec <sequence_command+0x4de>
    2d76:	8d e2       	ldi	r24, 0x2D	; 45
    2d78:	91 e0       	ldi	r25, 0x01	; 1
    2d7a:	11 ce       	rjmp	.-990    	; 0x299e <sequence_command+0x90>
    2d7c:	64 e0       	ldi	r22, 0x04	; 4
    2d7e:	86 e8       	ldi	r24, 0x86	; 134
    2d80:	97 e1       	ldi	r25, 0x17	; 23
    2d82:	0e 94 1c 1a 	call	0x3438	; 0x3438 <seq_loadsequence>
    2d86:	89 e0       	ldi	r24, 0x09	; 9
    2d88:	91 e0       	ldi	r25, 0x01	; 1
    2d8a:	0e 94 06 1a 	call	0x340c	; 0x340c <seq_loadspeed>
    2d8e:	7f ce       	rjmp	.-770    	; 0x2a8e <sequence_command+0x180>
    2d90:	6a e5       	ldi	r22, 0x5A	; 90
    2d92:	86 e5       	ldi	r24, 0x56	; 86
    2d94:	96 e0       	ldi	r25, 0x06	; 6
    2d96:	0e 94 1c 1a 	call	0x3438	; 0x3438 <seq_loadsequence>
    2d9a:	0e 94 13 1a 	call	0x3426	; 0x3426 <seq_resetspeed>
    2d9e:	80 91 6d 02 	lds	r24, 0x026D
    2da2:	88 23       	and	r24, r24
    2da4:	21 f0       	breq	.+8      	; 0x2dae <sequence_command+0x4a0>
    2da6:	87 e4       	ldi	r24, 0x47	; 71
    2da8:	91 e0       	ldi	r25, 0x01	; 1
    2daa:	0e 94 8d 1c 	call	0x391a	; 0x391a <serial_puts_p>
    2dae:	0e 94 44 1a 	call	0x3488	; 0x3488 <seq_startsequence>
    2db2:	1c c0       	rjmp	.+56     	; 0x2dec <sequence_command+0x4de>
    2db4:	1f 92       	push	r1
    2db6:	8f 93       	push	r24
    2db8:	86 e2       	ldi	r24, 0x26	; 38
    2dba:	92 e0       	ldi	r25, 0x02	; 2
    2dbc:	9f 93       	push	r25
    2dbe:	8f 93       	push	r24
    2dc0:	8e 01       	movw	r16, r28
    2dc2:	0f 5f       	subi	r16, 0xFF	; 255
    2dc4:	1f 4f       	sbci	r17, 0xFF	; 255
    2dc6:	1f 93       	push	r17
    2dc8:	0f 93       	push	r16
    2dca:	0e 94 0f 23 	call	0x461e	; 0x461e <sprintf>
    2dce:	0e 94 13 1a 	call	0x3426	; 0x3426 <seq_resetspeed>
    2dd2:	0f 90       	pop	r0
    2dd4:	0f 90       	pop	r0
    2dd6:	0f 90       	pop	r0
    2dd8:	0f 90       	pop	r0
    2dda:	0f 90       	pop	r0
    2ddc:	0f 90       	pop	r0
    2dde:	80 91 6e 02 	lds	r24, 0x026E
    2de2:	88 23       	and	r24, r24
    2de4:	19 f0       	breq	.+6      	; 0x2dec <sequence_command+0x4de>
    2de6:	c8 01       	movw	r24, r16
    2de8:	0e 94 54 1c 	call	0x38a8	; 0x38a8 <serial_puts>
    2dec:	a3 96       	adiw	r28, 0x23	; 35
    2dee:	0f b6       	in	r0, 0x3f	; 63
    2df0:	f8 94       	cli
    2df2:	de bf       	out	0x3e, r29	; 62
    2df4:	0f be       	out	0x3f, r0	; 63
    2df6:	cd bf       	out	0x3d, r28	; 61
    2df8:	df 91       	pop	r29
    2dfa:	cf 91       	pop	r28
    2dfc:	1f 91       	pop	r17
    2dfe:	0f 91       	pop	r16
    2e00:	08 95       	ret

00002e02 <process_command>:
    2e02:	1f 93       	push	r17
    2e04:	cf 93       	push	r28
    2e06:	df 93       	push	r29
    2e08:	ec 01       	movw	r28, r24
    2e0a:	cb 01       	movw	r24, r22
    2e0c:	0e 94 ad 22 	call	0x455a	; 0x455a <atoi>
    2e10:	18 2f       	mov	r17, r24
    2e12:	69 e4       	ldi	r22, 0x49	; 73
    2e14:	72 e0       	ldi	r23, 0x02	; 2
    2e16:	ce 01       	movw	r24, r28
    2e18:	0e 94 d0 22 	call	0x45a0	; 0x45a0 <strcmp>
    2e1c:	89 2b       	or	r24, r25
    2e1e:	51 f4       	brne	.+20     	; 0x2e34 <process_command+0x32>
    2e20:	89 ee       	ldi	r24, 0xE9	; 233
    2e22:	93 e0       	ldi	r25, 0x03	; 3
    2e24:	0e 94 8d 1c 	call	0x391a	; 0x391a <serial_puts_p>
    2e28:	81 2f       	mov	r24, r17
    2e2a:	df 91       	pop	r29
    2e2c:	cf 91       	pop	r28
    2e2e:	1f 91       	pop	r17
    2e30:	0c 94 87 14 	jmp	0x290e	; 0x290e <sequence_command>
    2e34:	6c e4       	ldi	r22, 0x4C	; 76
    2e36:	72 e0       	ldi	r23, 0x02	; 2
    2e38:	ce 01       	movw	r24, r28
    2e3a:	0e 94 d0 22 	call	0x45a0	; 0x45a0 <strcmp>
    2e3e:	89 2b       	or	r24, r25
    2e40:	51 f4       	brne	.+20     	; 0x2e56 <process_command+0x54>
    2e42:	89 ee       	ldi	r24, 0xE9	; 233
    2e44:	93 e0       	ldi	r25, 0x03	; 3
    2e46:	0e 94 8d 1c 	call	0x391a	; 0x391a <serial_puts_p>
    2e4a:	81 2f       	mov	r24, r17
    2e4c:	df 91       	pop	r29
    2e4e:	cf 91       	pop	r28
    2e50:	1f 91       	pop	r17
    2e52:	0c 94 ca 11 	jmp	0x2394	; 0x2394 <open_command>
    2e56:	6f e4       	ldi	r22, 0x4F	; 79
    2e58:	72 e0       	ldi	r23, 0x02	; 2
    2e5a:	ce 01       	movw	r24, r28
    2e5c:	0e 94 d0 22 	call	0x45a0	; 0x45a0 <strcmp>
    2e60:	89 2b       	or	r24, r25
    2e62:	51 f4       	brne	.+20     	; 0x2e78 <process_command+0x76>
    2e64:	89 ee       	ldi	r24, 0xE9	; 233
    2e66:	93 e0       	ldi	r25, 0x03	; 3
    2e68:	0e 94 8d 1c 	call	0x391a	; 0x391a <serial_puts_p>
    2e6c:	81 2f       	mov	r24, r17
    2e6e:	df 91       	pop	r29
    2e70:	cf 91       	pop	r28
    2e72:	1f 91       	pop	r17
    2e74:	0c 94 f7 11 	jmp	0x23ee	; 0x23ee <close_command>
    2e78:	62 e5       	ldi	r22, 0x52	; 82
    2e7a:	72 e0       	ldi	r23, 0x02	; 2
    2e7c:	ce 01       	movw	r24, r28
    2e7e:	0e 94 d0 22 	call	0x45a0	; 0x45a0 <strcmp>
    2e82:	89 2b       	or	r24, r25
    2e84:	51 f4       	brne	.+20     	; 0x2e9a <process_command+0x98>
    2e86:	89 ee       	ldi	r24, 0xE9	; 233
    2e88:	93 e0       	ldi	r25, 0x03	; 3
    2e8a:	0e 94 8d 1c 	call	0x391a	; 0x391a <serial_puts_p>
    2e8e:	81 2f       	mov	r24, r17
    2e90:	df 91       	pop	r29
    2e92:	cf 91       	pop	r28
    2e94:	1f 91       	pop	r17
    2e96:	0c 94 2b 12 	jmp	0x2456	; 0x2456 <rc_command>
    2e9a:	65 e5       	ldi	r22, 0x55	; 85
    2e9c:	72 e0       	ldi	r23, 0x02	; 2
    2e9e:	ce 01       	movw	r24, r28
    2ea0:	0e 94 d0 22 	call	0x45a0	; 0x45a0 <strcmp>
    2ea4:	89 2b       	or	r24, r25
    2ea6:	51 f4       	brne	.+20     	; 0x2ebc <process_command+0xba>
    2ea8:	89 ee       	ldi	r24, 0xE9	; 233
    2eaa:	93 e0       	ldi	r25, 0x03	; 3
    2eac:	0e 94 8d 1c 	call	0x391a	; 0x391a <serial_puts_p>
    2eb0:	81 2f       	mov	r24, r17
    2eb2:	df 91       	pop	r29
    2eb4:	cf 91       	pop	r28
    2eb6:	1f 91       	pop	r17
    2eb8:	0c 94 38 12 	jmp	0x2470	; 0x2470 <stop_command>
    2ebc:	68 e5       	ldi	r22, 0x58	; 88
    2ebe:	72 e0       	ldi	r23, 0x02	; 2
    2ec0:	ce 01       	movw	r24, r28
    2ec2:	0e 94 d0 22 	call	0x45a0	; 0x45a0 <strcmp>
    2ec6:	89 2b       	or	r24, r25
    2ec8:	51 f4       	brne	.+20     	; 0x2ede <process_command+0xdc>
    2eca:	89 ee       	ldi	r24, 0xE9	; 233
    2ecc:	93 e0       	ldi	r25, 0x03	; 3
    2ece:	0e 94 8d 1c 	call	0x391a	; 0x391a <serial_puts_p>
    2ed2:	81 2f       	mov	r24, r17
    2ed4:	df 91       	pop	r29
    2ed6:	cf 91       	pop	r28
    2ed8:	1f 91       	pop	r17
    2eda:	0c 94 5c 12 	jmp	0x24b8	; 0x24b8 <hold_command>
    2ede:	80 91 6e 02 	lds	r24, 0x026E
    2ee2:	88 23       	and	r24, r24
    2ee4:	39 f0       	breq	.+14     	; 0x2ef4 <process_command+0xf2>
    2ee6:	8e e8       	ldi	r24, 0x8E	; 142
    2ee8:	92 e0       	ldi	r25, 0x02	; 2
    2eea:	df 91       	pop	r29
    2eec:	cf 91       	pop	r28
    2eee:	1f 91       	pop	r17
    2ef0:	0c 94 8d 1c 	jmp	0x391a	; 0x391a <serial_puts_p>
    2ef4:	df 91       	pop	r29
    2ef6:	cf 91       	pop	r28
    2ef8:	1f 91       	pop	r17
    2efa:	08 95       	ret

00002efc <parse_panel_command>:
    2efc:	cf 93       	push	r28
    2efe:	df 93       	push	r29
    2f00:	00 d0       	rcall	.+0      	; 0x2f02 <parse_panel_command+0x6>
    2f02:	00 d0       	rcall	.+0      	; 0x2f04 <parse_panel_command+0x8>
    2f04:	00 d0       	rcall	.+0      	; 0x2f06 <parse_panel_command+0xa>
    2f06:	cd b7       	in	r28, 0x3d	; 61
    2f08:	de b7       	in	r29, 0x3e	; 62
    2f0a:	fc 01       	movw	r30, r24
    2f0c:	65 30       	cpi	r22, 0x05	; 5
    2f0e:	49 f0       	breq	.+18     	; 0x2f22 <parse_panel_command+0x26>
    2f10:	80 91 6e 02 	lds	r24, 0x026E
    2f14:	88 23       	and	r24, r24
    2f16:	c9 f0       	breq	.+50     	; 0x2f4a <parse_panel_command+0x4e>
    2f18:	8e e8       	ldi	r24, 0x8E	; 142
    2f1a:	92 e0       	ldi	r25, 0x02	; 2
    2f1c:	0e 94 8d 1c 	call	0x391a	; 0x391a <serial_puts_p>
    2f20:	14 c0       	rjmp	.+40     	; 0x2f4a <parse_panel_command+0x4e>
    2f22:	80 81       	ld	r24, Z
    2f24:	8a 33       	cpi	r24, 0x3A	; 58
    2f26:	a1 f7       	brne	.-24     	; 0x2f10 <parse_panel_command+0x14>
    2f28:	81 81       	ldd	r24, Z+1	; 0x01
    2f2a:	8c 83       	std	Y+4, r24	; 0x04
    2f2c:	82 81       	ldd	r24, Z+2	; 0x02
    2f2e:	8d 83       	std	Y+5, r24	; 0x05
    2f30:	1e 82       	std	Y+6, r1	; 0x06
    2f32:	83 81       	ldd	r24, Z+3	; 0x03
    2f34:	89 83       	std	Y+1, r24	; 0x01
    2f36:	84 81       	ldd	r24, Z+4	; 0x04
    2f38:	8a 83       	std	Y+2, r24	; 0x02
    2f3a:	1b 82       	std	Y+3, r1	; 0x03
    2f3c:	be 01       	movw	r22, r28
    2f3e:	6f 5f       	subi	r22, 0xFF	; 255
    2f40:	7f 4f       	sbci	r23, 0xFF	; 255
    2f42:	ce 01       	movw	r24, r28
    2f44:	04 96       	adiw	r24, 0x04	; 4
    2f46:	0e 94 01 17 	call	0x2e02	; 0x2e02 <process_command>
    2f4a:	26 96       	adiw	r28, 0x06	; 6
    2f4c:	0f b6       	in	r0, 0x3f	; 63
    2f4e:	f8 94       	cli
    2f50:	de bf       	out	0x3e, r29	; 62
    2f52:	0f be       	out	0x3f, r0	; 63
    2f54:	cd bf       	out	0x3d, r28	; 61
    2f56:	df 91       	pop	r29
    2f58:	cf 91       	pop	r28
    2f5a:	08 95       	ret

00002f5c <dispatch_command>:
    2f5c:	fc 01       	movw	r30, r24
    2f5e:	20 81       	ld	r18, Z
    2f60:	01 90       	ld	r0, Z+
    2f62:	00 20       	and	r0, r0
    2f64:	e9 f7       	brne	.-6      	; 0x2f60 <dispatch_command+0x4>
    2f66:	bf 01       	movw	r22, r30
    2f68:	61 50       	subi	r22, 0x01	; 1
    2f6a:	71 09       	sbc	r23, r1
    2f6c:	68 1b       	sub	r22, r24
    2f6e:	79 0b       	sbc	r23, r25
    2f70:	61 11       	cpse	r22, r1
    2f72:	03 c0       	rjmp	.+6      	; 0x2f7a <dispatch_command+0x1e>
    2f74:	89 ee       	ldi	r24, 0xE9	; 233
    2f76:	93 e0       	ldi	r25, 0x03	; 3
    2f78:	22 c0       	rjmp	.+68     	; 0x2fbe <dispatch_command+0x62>
    2f7a:	26 32       	cpi	r18, 0x26	; 38
    2f7c:	c1 f0       	breq	.+48     	; 0x2fae <dispatch_command+0x52>
    2f7e:	38 f4       	brcc	.+14     	; 0x2f8e <dispatch_command+0x32>
    2f80:	24 32       	cpi	r18, 0x24	; 36
    2f82:	89 f0       	breq	.+34     	; 0x2fa6 <dispatch_command+0x4a>
    2f84:	90 f4       	brcc	.+36     	; 0x2faa <dispatch_command+0x4e>
    2f86:	21 32       	cpi	r18, 0x21	; 33
    2f88:	a1 f4       	brne	.+40     	; 0x2fb2 <dispatch_command+0x56>
    2f8a:	0c 94 7a 10 	jmp	0x20f4	; 0x20f4 <parse_alt1_command>
    2f8e:	2a 33       	cpi	r18, 0x3A	; 58
    2f90:	31 f0       	breq	.+12     	; 0x2f9e <dispatch_command+0x42>
    2f92:	20 34       	cpi	r18, 0x40	; 64
    2f94:	31 f0       	breq	.+12     	; 0x2fa2 <dispatch_command+0x46>
    2f96:	2a 32       	cpi	r18, 0x2A	; 42
    2f98:	61 f4       	brne	.+24     	; 0x2fb2 <dispatch_command+0x56>
    2f9a:	0c 94 44 10 	jmp	0x2088	; 0x2088 <parse_hp_command>
    2f9e:	0c 94 7e 17 	jmp	0x2efc	; 0x2efc <parse_panel_command>
    2fa2:	0c 94 57 10 	jmp	0x20ae	; 0x20ae <parse_display_command>
    2fa6:	0c 94 6a 10 	jmp	0x20d4	; 0x20d4 <parse_sound_command>
    2faa:	0c 94 8e 10 	jmp	0x211c	; 0x211c <parse_alt2_command>
    2fae:	0c 94 41 11 	jmp	0x2282	; 0x2282 <parse_i2c_command>
    2fb2:	80 91 6e 02 	lds	r24, 0x026E
    2fb6:	88 23       	and	r24, r24
    2fb8:	21 f0       	breq	.+8      	; 0x2fc2 <dispatch_command+0x66>
    2fba:	82 e4       	ldi	r24, 0x42	; 66
    2fbc:	93 e0       	ldi	r25, 0x03	; 3
    2fbe:	0c 94 8d 1c 	jmp	0x391a	; 0x391a <serial_puts_p>
    2fc2:	08 95       	ret

00002fc4 <main>:
    2fc4:	cf 93       	push	r28
    2fc6:	df 93       	push	r29
    2fc8:	cd b7       	in	r28, 0x3d	; 61
    2fca:	de b7       	in	r29, 0x3e	; 62
    2fcc:	c1 54       	subi	r28, 0x41	; 65
    2fce:	d1 09       	sbc	r29, r1
    2fd0:	0f b6       	in	r0, 0x3f	; 63
    2fd2:	f8 94       	cli
    2fd4:	de bf       	out	0x3e, r29	; 62
    2fd6:	0f be       	out	0x3f, r0	; 63
    2fd8:	cd bf       	out	0x3d, r28	; 61
    2fda:	0e 94 9c 1b 	call	0x3738	; 0x3738 <serial_init_9600b8N1>
    2fde:	8e ec       	ldi	r24, 0xCE	; 206
    2fe0:	93 e0       	ldi	r25, 0x03	; 3
    2fe2:	0e 94 8d 1c 	call	0x391a	; 0x391a <serial_puts_p>
    2fe6:	80 e3       	ldi	r24, 0x30	; 48
    2fe8:	93 e0       	ldi	r25, 0x03	; 3
    2fea:	0e 94 8d 1c 	call	0x391a	; 0x391a <serial_puts_p>
    2fee:	60 e8       	ldi	r22, 0x80	; 128
    2ff0:	75 e2       	ldi	r23, 0x25	; 37
    2ff2:	80 e0       	ldi	r24, 0x00	; 0
    2ff4:	90 e0       	ldi	r25, 0x00	; 0
    2ff6:	0e 94 fe 1e 	call	0x3dfc	; 0x3dfc <suart_init>
    2ffa:	88 e8       	ldi	r24, 0x88	; 136
    2ffc:	93 e0       	ldi	r25, 0x03	; 3
    2ffe:	0e 94 b6 1f 	call	0x3f6c	; 0x3f6c <suart_puts_p>
    3002:	0e 94 65 1d 	call	0x3aca	; 0x3aca <servo_init>
    3006:	0e 94 36 19 	call	0x326c	; 0x326c <realtime_init>
    300a:	0e 94 f4 19 	call	0x33e8	; 0x33e8 <seq_init>
    300e:	81 e0       	ldi	r24, 0x01	; 1
    3010:	0e 94 f3 0e 	call	0x1de6	; 0x1de6 <i2c_init>
    3014:	8d eb       	ldi	r24, 0xBD	; 189
    3016:	92 e0       	ldi	r25, 0x02	; 2
    3018:	0e 94 ba 18 	call	0x3174	; 0x3174 <rt_add_timer>
    301c:	3a 9a       	sbi	0x07, 2	; 7
    301e:	42 9a       	sbi	0x08, 2	; 8
    3020:	89 e0       	ldi	r24, 0x09	; 9
    3022:	93 e0       	ldi	r25, 0x03	; 3
    3024:	0e 94 ba 18 	call	0x3174	; 0x3174 <rt_add_timer>
    3028:	62 e0       	ldi	r22, 0x02	; 2
    302a:	8a e2       	ldi	r24, 0x2A	; 42
    302c:	96 e0       	ldi	r25, 0x06	; 6
    302e:	0e 94 1c 1a 	call	0x3438	; 0x3438 <seq_loadsequence>
    3032:	0e 94 44 1a 	call	0x3488	; 0x3488 <seq_startsequence>
    3036:	60 e8       	ldi	r22, 0x80	; 128
    3038:	75 e2       	ldi	r23, 0x25	; 37
    303a:	80 e0       	ldi	r24, 0x00	; 0
    303c:	90 e0       	ldi	r25, 0x00	; 0
    303e:	0e 94 c5 1f 	call	0x3f8a	; 0x3f8a <suart2_init>
    3042:	2f ef       	ldi	r18, 0xFF	; 255
    3044:	3b e7       	ldi	r19, 0x7B	; 123
    3046:	82 e9       	ldi	r24, 0x92	; 146
    3048:	21 50       	subi	r18, 0x01	; 1
    304a:	30 40       	sbci	r19, 0x00	; 0
    304c:	80 40       	sbci	r24, 0x00	; 0
    304e:	e1 f7       	brne	.-8      	; 0x3048 <main+0x84>
    3050:	00 c0       	rjmp	.+0      	; 0x3052 <main+0x8e>
    3052:	00 00       	nop
    3054:	0e 94 74 0d 	call	0x1ae8	; 0x1ae8 <mp3_init>
    3058:	9a ea       	ldi	r25, 0xAA	; 170
    305a:	e6 ee       	ldi	r30, 0xE6	; 230
    305c:	f6 e9       	ldi	r31, 0x96	; 150
    305e:	21 e0       	ldi	r18, 0x01	; 1
    3060:	91 50       	subi	r25, 0x01	; 1
    3062:	e0 40       	sbci	r30, 0x00	; 0
    3064:	f0 40       	sbci	r31, 0x00	; 0
    3066:	20 40       	sbci	r18, 0x00	; 0
    3068:	d9 f7       	brne	.-10     	; 0x3060 <main+0x9c>
    306a:	00 00       	nop
    306c:	0e 94 c5 0c 	call	0x198a	; 0x198a <mp3_start_random>
    3070:	85 ea       	ldi	r24, 0xA5	; 165
    3072:	93 e0       	ldi	r25, 0x03	; 3
    3074:	0e 94 8d 1c 	call	0x391a	; 0x391a <serial_puts_p>
    3078:	88 eb       	ldi	r24, 0xB8	; 184
    307a:	9b e0       	ldi	r25, 0x0B	; 11
    307c:	90 93 0a 03 	sts	0x030A, r25
    3080:	80 93 09 03 	sts	0x0309, r24
    3084:	98 eb       	ldi	r25, 0xB8	; 184
    3086:	c9 2e       	mov	r12, r25
    3088:	9b e0       	ldi	r25, 0x0B	; 11
    308a:	d9 2e       	mov	r13, r25
    308c:	21 e2       	ldi	r18, 0x21	; 33
    308e:	a2 2e       	mov	r10, r18
    3090:	b1 2c       	mov	r11, r1
    3092:	0e 94 37 1c 	call	0x386e	; 0x386e <serial_available>
    3096:	88 23       	and	r24, r24
    3098:	a9 f0       	breq	.+42     	; 0x30c4 <main+0x100>
    309a:	d0 92 0a 03 	sts	0x030A, r13
    309e:	c0 92 09 03 	sts	0x0309, r12
    30a2:	0e 94 46 1c 	call	0x388c	; 0x388c <serial_getc>
    30a6:	18 2f       	mov	r17, r24
    30a8:	0e 94 1f 10 	call	0x203e	; 0x203e <echo>
    30ac:	be 01       	movw	r22, r28
    30ae:	6f 5f       	subi	r22, 0xFF	; 255
    30b0:	7f 4f       	sbci	r23, 0xFF	; 255
    30b2:	81 2f       	mov	r24, r17
    30b4:	0e 94 29 10 	call	0x2052	; 0x2052 <build_command>
    30b8:	88 23       	and	r24, r24
    30ba:	21 f0       	breq	.+8      	; 0x30c4 <main+0x100>
    30bc:	ce 01       	movw	r24, r28
    30be:	01 96       	adiw	r24, 0x01	; 1
    30c0:	0e 94 ae 17 	call	0x2f5c	; 0x2f5c <dispatch_command>
    30c4:	0e 94 1a 0d 	call	0x1a34	; 0x1a34 <mp3_do_random>
    30c8:	0e 94 1a 1d 	call	0x3a34	; 0x3a34 <servo_RCread>
    30cc:	7c 01       	movw	r14, r24
    30ce:	83 eb       	ldi	r24, 0xB3	; 179
    30d0:	88 2e       	mov	r8, r24
    30d2:	82 e0       	ldi	r24, 0x02	; 2
    30d4:	98 2e       	mov	r9, r24
    30d6:	0f eb       	ldi	r16, 0xBF	; 191
    30d8:	12 e0       	ldi	r17, 0x02	; 2
    30da:	77 24       	eor	r7, r7
    30dc:	73 94       	inc	r7
    30de:	f4 01       	movw	r30, r8
    30e0:	61 90       	ld	r6, Z+
    30e2:	4f 01       	movw	r8, r30
    30e4:	f1 e0       	ldi	r31, 0x01	; 1
    30e6:	6f 12       	cpse	r6, r31
    30e8:	1e c0       	rjmp	.+60     	; 0x3126 <main+0x162>
    30ea:	27 ec       	ldi	r18, 0xC7	; 199
    30ec:	e2 16       	cp	r14, r18
    30ee:	27 e0       	ldi	r18, 0x07	; 7
    30f0:	f2 06       	cpc	r15, r18
    30f2:	ac f0       	brlt	.+42     	; 0x311e <main+0x15a>
    30f4:	f8 01       	movw	r30, r16
    30f6:	80 81       	ld	r24, Z
    30f8:	81 11       	cpse	r24, r1
    30fa:	15 c0       	rjmp	.+42     	; 0x3126 <main+0x162>
    30fc:	87 2d       	mov	r24, r7
    30fe:	0e 94 01 1d 	call	0x3a02	; 0x3a02 <servo_read>
    3102:	01 96       	adiw	r24, 0x01	; 1
    3104:	81 f0       	breq	.+32     	; 0x3126 <main+0x162>
    3106:	60 ed       	ldi	r22, 0xD0	; 208
    3108:	77 e0       	ldi	r23, 0x07	; 7
    310a:	87 2d       	mov	r24, r7
    310c:	0e 94 da 1c 	call	0x39b4	; 0x39b4 <servo_set>
    3110:	b0 92 be 02 	sts	0x02BE, r11
    3114:	a0 92 bd 02 	sts	0x02BD, r10
    3118:	f8 01       	movw	r30, r16
    311a:	60 82       	st	Z, r6
    311c:	04 c0       	rjmp	.+8      	; 0x3126 <main+0x162>
    311e:	b7 01       	movw	r22, r14
    3120:	87 2d       	mov	r24, r7
    3122:	0e 94 da 1c 	call	0x39b4	; 0x39b4 <servo_set>
    3126:	73 94       	inc	r7
    3128:	0f 5f       	subi	r16, 0xFF	; 255
    312a:	1f 4f       	sbci	r17, 0xFF	; 255
    312c:	fb e0       	ldi	r31, 0x0B	; 11
    312e:	7f 12       	cpse	r7, r31
    3130:	d6 cf       	rjmp	.-84     	; 0x30de <main+0x11a>
    3132:	80 91 bd 02 	lds	r24, 0x02BD
    3136:	90 91 be 02 	lds	r25, 0x02BE
    313a:	89 2b       	or	r24, r25
    313c:	09 f0       	breq	.+2      	; 0x3140 <main+0x17c>
    313e:	a9 cf       	rjmp	.-174    	; 0x3092 <main+0xce>
    3140:	0f eb       	ldi	r16, 0xBF	; 191
    3142:	12 e0       	ldi	r17, 0x02	; 2
    3144:	91 e0       	ldi	r25, 0x01	; 1
    3146:	f8 01       	movw	r30, r16
    3148:	81 91       	ld	r24, Z+
    314a:	8f 01       	movw	r16, r30
    314c:	88 23       	and	r24, r24
    314e:	71 f0       	breq	.+28     	; 0x316c <main+0x1a8>
    3150:	6f ef       	ldi	r22, 0xFF	; 255
    3152:	7f ef       	ldi	r23, 0xFF	; 255
    3154:	89 2f       	mov	r24, r25
    3156:	22 96       	adiw	r28, 0x02	; 2
    3158:	9f af       	std	Y+63, r25	; 0x3f
    315a:	22 97       	sbiw	r28, 0x02	; 2
    315c:	0e 94 da 1c 	call	0x39b4	; 0x39b4 <servo_set>
    3160:	f8 01       	movw	r30, r16
    3162:	31 97       	sbiw	r30, 0x01	; 1
    3164:	10 82       	st	Z, r1
    3166:	22 96       	adiw	r28, 0x02	; 2
    3168:	9f ad       	ldd	r25, Y+63	; 0x3f
    316a:	22 97       	sbiw	r28, 0x02	; 2
    316c:	9f 5f       	subi	r25, 0xFF	; 255
    316e:	9b 30       	cpi	r25, 0x0B	; 11
    3170:	51 f7       	brne	.-44     	; 0x3146 <main+0x182>
    3172:	8f cf       	rjmp	.-226    	; 0x3092 <main+0xce>

00003174 <rt_add_timer>:
    3174:	e4 e1       	ldi	r30, 0x14	; 20
    3176:	f3 e0       	ldi	r31, 0x03	; 3
    3178:	20 e0       	ldi	r18, 0x00	; 0
    317a:	30 e0       	ldi	r19, 0x00	; 0
    317c:	41 91       	ld	r20, Z+
    317e:	51 91       	ld	r21, Z+
    3180:	45 2b       	or	r20, r21
    3182:	49 f4       	brne	.+18     	; 0x3196 <rt_add_timer+0x22>
    3184:	f9 01       	movw	r30, r18
    3186:	ee 0f       	add	r30, r30
    3188:	ff 1f       	adc	r31, r31
    318a:	ec 5e       	subi	r30, 0xEC	; 236
    318c:	fc 4f       	sbci	r31, 0xFC	; 252
    318e:	91 83       	std	Z+1, r25	; 0x01
    3190:	80 83       	st	Z, r24
    3192:	81 e0       	ldi	r24, 0x01	; 1
    3194:	08 95       	ret
    3196:	2f 5f       	subi	r18, 0xFF	; 255
    3198:	3f 4f       	sbci	r19, 0xFF	; 255
    319a:	2a 30       	cpi	r18, 0x0A	; 10
    319c:	31 05       	cpc	r19, r1
    319e:	71 f7       	brne	.-36     	; 0x317c <rt_add_timer+0x8>
    31a0:	80 e0       	ldi	r24, 0x00	; 0
    31a2:	08 95       	ret

000031a4 <rt_remove_timer>:
    31a4:	e4 e1       	ldi	r30, 0x14	; 20
    31a6:	f3 e0       	ldi	r31, 0x03	; 3
    31a8:	20 e0       	ldi	r18, 0x00	; 0
    31aa:	30 e0       	ldi	r19, 0x00	; 0
    31ac:	41 91       	ld	r20, Z+
    31ae:	51 91       	ld	r21, Z+
    31b0:	48 17       	cp	r20, r24
    31b2:	59 07       	cpc	r21, r25
    31b4:	49 f4       	brne	.+18     	; 0x31c8 <rt_remove_timer+0x24>
    31b6:	f9 01       	movw	r30, r18
    31b8:	ee 0f       	add	r30, r30
    31ba:	ff 1f       	adc	r31, r31
    31bc:	ec 5e       	subi	r30, 0xEC	; 236
    31be:	fc 4f       	sbci	r31, 0xFC	; 252
    31c0:	11 82       	std	Z+1, r1	; 0x01
    31c2:	10 82       	st	Z, r1
    31c4:	81 e0       	ldi	r24, 0x01	; 1
    31c6:	08 95       	ret
    31c8:	2f 5f       	subi	r18, 0xFF	; 255
    31ca:	3f 4f       	sbci	r19, 0xFF	; 255
    31cc:	2a 30       	cpi	r18, 0x0A	; 10
    31ce:	31 05       	cpc	r19, r1
    31d0:	69 f7       	brne	.-38     	; 0x31ac <rt_remove_timer+0x8>
    31d2:	80 e0       	ldi	r24, 0x00	; 0
    31d4:	08 95       	ret

000031d6 <rt_add_function>:
    31d6:	20 91 0d 03 	lds	r18, 0x030D
    31da:	30 91 0e 03 	lds	r19, 0x030E
    31de:	23 2b       	or	r18, r19
    31e0:	79 f0       	breq	.+30     	; 0x3200 <rt_add_function+0x2a>
    31e2:	20 91 0f 03 	lds	r18, 0x030F
    31e6:	30 91 10 03 	lds	r19, 0x0310
    31ea:	23 2b       	or	r18, r19
    31ec:	61 f0       	breq	.+24     	; 0x3206 <rt_add_function+0x30>
    31ee:	20 91 11 03 	lds	r18, 0x0311
    31f2:	30 91 12 03 	lds	r19, 0x0312
    31f6:	23 2b       	or	r18, r19
    31f8:	81 f4       	brne	.+32     	; 0x321a <rt_add_function+0x44>
    31fa:	e2 e0       	ldi	r30, 0x02	; 2
    31fc:	f0 e0       	ldi	r31, 0x00	; 0
    31fe:	05 c0       	rjmp	.+10     	; 0x320a <rt_add_function+0x34>
    3200:	e0 e0       	ldi	r30, 0x00	; 0
    3202:	f0 e0       	ldi	r31, 0x00	; 0
    3204:	02 c0       	rjmp	.+4      	; 0x320a <rt_add_function+0x34>
    3206:	e1 e0       	ldi	r30, 0x01	; 1
    3208:	f0 e0       	ldi	r31, 0x00	; 0
    320a:	ee 0f       	add	r30, r30
    320c:	ff 1f       	adc	r31, r31
    320e:	e3 5f       	subi	r30, 0xF3	; 243
    3210:	fc 4f       	sbci	r31, 0xFC	; 252
    3212:	91 83       	std	Z+1, r25	; 0x01
    3214:	80 83       	st	Z, r24
    3216:	81 e0       	ldi	r24, 0x01	; 1
    3218:	08 95       	ret
    321a:	80 e0       	ldi	r24, 0x00	; 0
    321c:	08 95       	ret

0000321e <rt_remove_function>:
    321e:	20 91 0d 03 	lds	r18, 0x030D
    3222:	30 91 0e 03 	lds	r19, 0x030E
    3226:	28 17       	cp	r18, r24
    3228:	39 07       	cpc	r19, r25
    322a:	89 f0       	breq	.+34     	; 0x324e <rt_remove_function+0x30>
    322c:	20 91 0f 03 	lds	r18, 0x030F
    3230:	30 91 10 03 	lds	r19, 0x0310
    3234:	28 17       	cp	r18, r24
    3236:	39 07       	cpc	r19, r25
    3238:	69 f0       	breq	.+26     	; 0x3254 <rt_remove_function+0x36>
    323a:	20 91 11 03 	lds	r18, 0x0311
    323e:	30 91 12 03 	lds	r19, 0x0312
    3242:	28 17       	cp	r18, r24
    3244:	39 07       	cpc	r19, r25
    3246:	81 f4       	brne	.+32     	; 0x3268 <rt_remove_function+0x4a>
    3248:	e2 e0       	ldi	r30, 0x02	; 2
    324a:	f0 e0       	ldi	r31, 0x00	; 0
    324c:	05 c0       	rjmp	.+10     	; 0x3258 <rt_remove_function+0x3a>
    324e:	e0 e0       	ldi	r30, 0x00	; 0
    3250:	f0 e0       	ldi	r31, 0x00	; 0
    3252:	02 c0       	rjmp	.+4      	; 0x3258 <rt_remove_function+0x3a>
    3254:	e1 e0       	ldi	r30, 0x01	; 1
    3256:	f0 e0       	ldi	r31, 0x00	; 0
    3258:	ee 0f       	add	r30, r30
    325a:	ff 1f       	adc	r31, r31
    325c:	e3 5f       	subi	r30, 0xF3	; 243
    325e:	fc 4f       	sbci	r31, 0xFC	; 252
    3260:	11 82       	std	Z+1, r1	; 0x01
    3262:	10 82       	st	Z, r1
    3264:	81 e0       	ldi	r24, 0x01	; 1
    3266:	08 95       	ret
    3268:	80 e0       	ldi	r24, 0x00	; 0
    326a:	08 95       	ret

0000326c <realtime_init>:
    326c:	3b 9a       	sbi	0x07, 3	; 7
    326e:	84 b5       	in	r24, 0x24	; 36
    3270:	82 60       	ori	r24, 0x02	; 2
    3272:	84 bd       	out	0x24, r24	; 36
    3274:	8f ec       	ldi	r24, 0xCF	; 207
    3276:	87 bd       	out	0x27, r24	; 39
    3278:	16 bc       	out	0x26, r1	; 38
    327a:	ee e6       	ldi	r30, 0x6E	; 110
    327c:	f0 e0       	ldi	r31, 0x00	; 0
    327e:	80 81       	ld	r24, Z
    3280:	82 60       	ori	r24, 0x02	; 2
    3282:	80 83       	st	Z, r24
    3284:	85 b5       	in	r24, 0x25	; 37
    3286:	84 60       	ori	r24, 0x04	; 4
    3288:	85 bd       	out	0x25, r24	; 37
    328a:	78 94       	sei
    328c:	08 95       	ret

0000328e <__vector_14>:
    328e:	1f 92       	push	r1
    3290:	0f 92       	push	r0
    3292:	0f b6       	in	r0, 0x3f	; 63
    3294:	0f 92       	push	r0
    3296:	11 24       	eor	r1, r1
    3298:	2f 93       	push	r18
    329a:	3f 93       	push	r19
    329c:	4f 93       	push	r20
    329e:	5f 93       	push	r21
    32a0:	6f 93       	push	r22
    32a2:	7f 93       	push	r23
    32a4:	8f 93       	push	r24
    32a6:	9f 93       	push	r25
    32a8:	af 93       	push	r26
    32aa:	bf 93       	push	r27
    32ac:	cf 93       	push	r28
    32ae:	df 93       	push	r29
    32b0:	ef 93       	push	r30
    32b2:	ff 93       	push	r31
    32b4:	80 91 84 02 	lds	r24, 0x0284
    32b8:	82 30       	cpi	r24, 0x02	; 2
    32ba:	40 f4       	brcc	.+16     	; 0x32cc <__vector_14+0x3e>
    32bc:	8f ec       	ldi	r24, 0xCF	; 207
    32be:	87 bd       	out	0x27, r24	; 39
    32c0:	80 91 84 02 	lds	r24, 0x0284
    32c4:	8f 5f       	subi	r24, 0xFF	; 255
    32c6:	80 93 84 02 	sts	0x0284, r24
    32ca:	7b c0       	rjmp	.+246    	; 0x33c2 <__vector_14+0x134>
    32cc:	80 ed       	ldi	r24, 0xD0	; 208
    32ce:	87 bd       	out	0x27, r24	; 39
    32d0:	10 92 84 02 	sts	0x0284, r1
    32d4:	80 91 2b 03 	lds	r24, 0x032B
    32d8:	90 91 2c 03 	lds	r25, 0x032C
    32dc:	01 96       	adiw	r24, 0x01	; 1
    32de:	90 93 2c 03 	sts	0x032C, r25
    32e2:	80 93 2b 03 	sts	0x032B, r24
    32e6:	80 91 28 03 	lds	r24, 0x0328
    32ea:	90 91 29 03 	lds	r25, 0x0329
    32ee:	01 96       	adiw	r24, 0x01	; 1
    32f0:	90 93 29 03 	sts	0x0329, r25
    32f4:	80 93 28 03 	sts	0x0328, r24
    32f8:	a4 e1       	ldi	r26, 0x14	; 20
    32fa:	b3 e0       	ldi	r27, 0x03	; 3
    32fc:	ed 91       	ld	r30, X+
    32fe:	fd 91       	ld	r31, X+
    3300:	30 97       	sbiw	r30, 0x00	; 0
    3302:	49 f0       	breq	.+18     	; 0x3316 <__vector_14+0x88>
    3304:	80 81       	ld	r24, Z
    3306:	91 81       	ldd	r25, Z+1	; 0x01
    3308:	89 2b       	or	r24, r25
    330a:	29 f0       	breq	.+10     	; 0x3316 <__vector_14+0x88>
    330c:	80 81       	ld	r24, Z
    330e:	91 81       	ldd	r25, Z+1	; 0x01
    3310:	01 97       	sbiw	r24, 0x01	; 1
    3312:	91 83       	std	Z+1, r25	; 0x01
    3314:	80 83       	st	Z, r24
    3316:	83 e0       	ldi	r24, 0x03	; 3
    3318:	a8 32       	cpi	r26, 0x28	; 40
    331a:	b8 07       	cpc	r27, r24
    331c:	79 f7       	brne	.-34     	; 0x32fc <__vector_14+0x6e>
    331e:	80 91 13 03 	lds	r24, 0x0313
    3322:	8f 5f       	subi	r24, 0xFF	; 255
    3324:	80 93 13 03 	sts	0x0313, r24
    3328:	80 91 13 03 	lds	r24, 0x0313
    332c:	84 36       	cpi	r24, 0x64	; 100
    332e:	11 f4       	brne	.+4      	; 0x3334 <__vector_14+0xa6>
    3330:	10 92 13 03 	sts	0x0313, r1
    3334:	80 91 83 02 	lds	r24, 0x0283
    3338:	8f 5f       	subi	r24, 0xFF	; 255
    333a:	80 93 83 02 	sts	0x0283, r24
    333e:	84 36       	cpi	r24, 0x64	; 100
    3340:	61 f5       	brne	.+88     	; 0x339a <__vector_14+0x10c>
    3342:	80 91 0b 03 	lds	r24, 0x030B
    3346:	90 91 0c 03 	lds	r25, 0x030C
    334a:	01 96       	adiw	r24, 0x01	; 1
    334c:	90 93 0c 03 	sts	0x030C, r25
    3350:	80 93 0b 03 	sts	0x030B, r24
    3354:	10 92 83 02 	sts	0x0283, r1
    3358:	80 91 2a 03 	lds	r24, 0x032A
    335c:	8f 5f       	subi	r24, 0xFF	; 255
    335e:	80 93 2a 03 	sts	0x032A, r24
    3362:	80 91 2a 03 	lds	r24, 0x032A
    3366:	8c 33       	cpi	r24, 0x3C	; 60
    3368:	c1 f4       	brne	.+48     	; 0x339a <__vector_14+0x10c>
    336a:	10 92 2a 03 	sts	0x032A, r1
    336e:	80 91 2d 03 	lds	r24, 0x032D
    3372:	8f 5f       	subi	r24, 0xFF	; 255
    3374:	80 93 2d 03 	sts	0x032D, r24
    3378:	80 91 2d 03 	lds	r24, 0x032D
    337c:	8c 33       	cpi	r24, 0x3C	; 60
    337e:	69 f4       	brne	.+26     	; 0x339a <__vector_14+0x10c>
    3380:	10 92 2d 03 	sts	0x032D, r1
    3384:	80 91 2e 03 	lds	r24, 0x032E
    3388:	8f 5f       	subi	r24, 0xFF	; 255
    338a:	80 93 2e 03 	sts	0x032E, r24
    338e:	80 91 2e 03 	lds	r24, 0x032E
    3392:	88 31       	cpi	r24, 0x18	; 24
    3394:	11 f4       	brne	.+4      	; 0x339a <__vector_14+0x10c>
    3396:	10 92 2e 03 	sts	0x032E, r1
    339a:	80 91 2a 03 	lds	r24, 0x032A
    339e:	80 ff       	sbrs	r24, 0
    33a0:	04 c0       	rjmp	.+8      	; 0x33aa <__vector_14+0x11c>
    33a2:	43 9a       	sbi	0x08, 3	; 8
    33a4:	cd e0       	ldi	r28, 0x0D	; 13
    33a6:	d3 e0       	ldi	r29, 0x03	; 3
    33a8:	06 c0       	rjmp	.+12     	; 0x33b6 <__vector_14+0x128>
    33aa:	43 98       	cbi	0x08, 3	; 8
    33ac:	fb cf       	rjmp	.-10     	; 0x33a4 <__vector_14+0x116>
    33ae:	83 e0       	ldi	r24, 0x03	; 3
    33b0:	c3 31       	cpi	r28, 0x13	; 19
    33b2:	d8 07       	cpc	r29, r24
    33b4:	31 f0       	breq	.+12     	; 0x33c2 <__vector_14+0x134>
    33b6:	e9 91       	ld	r30, Y+
    33b8:	f9 91       	ld	r31, Y+
    33ba:	30 97       	sbiw	r30, 0x00	; 0
    33bc:	c1 f3       	breq	.-16     	; 0x33ae <__vector_14+0x120>
    33be:	09 95       	icall
    33c0:	f6 cf       	rjmp	.-20     	; 0x33ae <__vector_14+0x120>
    33c2:	ff 91       	pop	r31
    33c4:	ef 91       	pop	r30
    33c6:	df 91       	pop	r29
    33c8:	cf 91       	pop	r28
    33ca:	bf 91       	pop	r27
    33cc:	af 91       	pop	r26
    33ce:	9f 91       	pop	r25
    33d0:	8f 91       	pop	r24
    33d2:	7f 91       	pop	r23
    33d4:	6f 91       	pop	r22
    33d6:	5f 91       	pop	r21
    33d8:	4f 91       	pop	r20
    33da:	3f 91       	pop	r19
    33dc:	2f 91       	pop	r18
    33de:	0f 90       	pop	r0
    33e0:	0f be       	out	0x3f, r0	; 63
    33e2:	0f 90       	pop	r0
    33e4:	1f 90       	pop	r1
    33e6:	18 95       	reti

000033e8 <seq_init>:
    33e8:	81 e9       	ldi	r24, 0x91	; 145
    33ea:	9a e1       	ldi	r25, 0x1A	; 26
    33ec:	0e 94 eb 18 	call	0x31d6	; 0x31d6 <rt_add_function>
    33f0:	89 e5       	ldi	r24, 0x59	; 89
    33f2:	93 e0       	ldi	r25, 0x03	; 3
    33f4:	0c 94 ba 18 	jmp	0x3174	; 0x3174 <rt_add_timer>

000033f8 <seq_add_completion_callback>:
    33f8:	90 93 44 03 	sts	0x0344, r25
    33fc:	80 93 43 03 	sts	0x0343, r24
    3400:	08 95       	ret

00003402 <seq_remove_completion_callback>:
    3402:	10 92 44 03 	sts	0x0344, r1
    3406:	10 92 43 03 	sts	0x0343, r1
    340a:	08 95       	ret

0000340c <seq_loadspeed>:
    340c:	ea e8       	ldi	r30, 0x8A	; 138
    340e:	f2 e0       	ldi	r31, 0x02	; 2
    3410:	dc 01       	movw	r26, r24
    3412:	2d 91       	ld	r18, X+
    3414:	3d 91       	ld	r19, X+
    3416:	cd 01       	movw	r24, r26
    3418:	21 93       	st	Z+, r18
    341a:	31 93       	st	Z+, r19
    341c:	b2 e0       	ldi	r27, 0x02	; 2
    341e:	ee 39       	cpi	r30, 0x9E	; 158
    3420:	fb 07       	cpc	r31, r27
    3422:	b1 f7       	brne	.-20     	; 0x3410 <seq_loadspeed+0x4>
    3424:	08 95       	ret

00003426 <seq_resetspeed>:
    3426:	ea e8       	ldi	r30, 0x8A	; 138
    3428:	f2 e0       	ldi	r31, 0x02	; 2
    342a:	11 92       	st	Z+, r1
    342c:	11 92       	st	Z+, r1
    342e:	82 e0       	ldi	r24, 0x02	; 2
    3430:	ee 39       	cpi	r30, 0x9E	; 158
    3432:	f8 07       	cpc	r31, r24
    3434:	d1 f7       	brne	.-12     	; 0x342a <seq_resetspeed+0x4>
    3436:	08 95       	ret

00003438 <seq_loadsequence>:
    3438:	cf 93       	push	r28
    343a:	df 93       	push	r29
    343c:	10 92 88 02 	sts	0x0288, r1
    3440:	10 92 89 02 	sts	0x0289, r1
    3444:	90 93 87 02 	sts	0x0287, r25
    3448:	80 93 86 02 	sts	0x0286, r24
    344c:	60 93 85 02 	sts	0x0285, r22
    3450:	c0 e0       	ldi	r28, 0x00	; 0
    3452:	d0 e0       	ldi	r29, 0x00	; 0
    3454:	8c 2f       	mov	r24, r28
    3456:	8f 5f       	subi	r24, 0xFF	; 255
    3458:	0e 94 01 1d 	call	0x3a02	; 0x3a02 <servo_read>
    345c:	9e 01       	movw	r18, r28
    345e:	22 0f       	add	r18, r18
    3460:	33 1f       	adc	r19, r19
    3462:	f9 01       	movw	r30, r18
    3464:	e1 5d       	subi	r30, 0xD1	; 209
    3466:	fc 4f       	sbci	r31, 0xFC	; 252
    3468:	91 83       	std	Z+1, r25	; 0x01
    346a:	80 83       	st	Z, r24
    346c:	80 81       	ld	r24, Z
    346e:	91 81       	ldd	r25, Z+1	; 0x01
    3470:	f9 01       	movw	r30, r18
    3472:	eb 5b       	subi	r30, 0xBB	; 187
    3474:	fc 4f       	sbci	r31, 0xFC	; 252
    3476:	91 83       	std	Z+1, r25	; 0x01
    3478:	80 83       	st	Z, r24
    347a:	21 96       	adiw	r28, 0x01	; 1
    347c:	ca 30       	cpi	r28, 0x0A	; 10
    347e:	d1 05       	cpc	r29, r1
    3480:	49 f7       	brne	.-46     	; 0x3454 <seq_loadsequence+0x1c>
    3482:	df 91       	pop	r29
    3484:	cf 91       	pop	r28
    3486:	08 95       	ret

00003488 <seq_startsequence>:
    3488:	10 92 89 02 	sts	0x0289, r1
    348c:	81 e0       	ldi	r24, 0x01	; 1
    348e:	80 93 88 02 	sts	0x0288, r24
    3492:	08 95       	ret

00003494 <seq_restartsequence>:
    3494:	81 e0       	ldi	r24, 0x01	; 1
    3496:	80 93 88 02 	sts	0x0288, r24
    349a:	08 95       	ret

0000349c <seq_stopsequence>:
    349c:	10 92 88 02 	sts	0x0288, r1
    34a0:	10 92 5a 03 	sts	0x035A, r1
    34a4:	10 92 59 03 	sts	0x0359, r1
    34a8:	e0 91 43 03 	lds	r30, 0x0343
    34ac:	f0 91 44 03 	lds	r31, 0x0344
    34b0:	30 97       	sbiw	r30, 0x00	; 0
    34b2:	09 f0       	breq	.+2      	; 0x34b6 <seq_stopsequence+0x1a>
    34b4:	09 94       	ijmp
    34b6:	08 95       	ret

000034b8 <seq_jumptostep>:
    34b8:	90 91 85 02 	lds	r25, 0x0285
    34bc:	89 17       	cp	r24, r25
    34be:	10 f4       	brcc	.+4      	; 0x34c4 <seq_jumptostep+0xc>
    34c0:	80 93 89 02 	sts	0x0289, r24
    34c4:	08 95       	ret

000034c6 <seq_setservopos>:
    34c6:	0f 93       	push	r16
    34c8:	1f 93       	push	r17
    34ca:	cf 93       	push	r28
    34cc:	df 93       	push	r29
    34ce:	8c 01       	movw	r16, r24
    34d0:	26 e1       	ldi	r18, 0x16	; 22
    34d2:	62 9f       	mul	r22, r18
    34d4:	00 0d       	add	r16, r0
    34d6:	11 1d       	adc	r17, r1
    34d8:	11 24       	eor	r1, r1
    34da:	0e 5f       	subi	r16, 0xFE	; 254
    34dc:	1f 4f       	sbci	r17, 0xFF	; 255
    34de:	c0 e0       	ldi	r28, 0x00	; 0
    34e0:	d0 e0       	ldi	r29, 0x00	; 0
    34e2:	8c 2f       	mov	r24, r28
    34e4:	8f 5f       	subi	r24, 0xFF	; 255
    34e6:	f8 01       	movw	r30, r16
    34e8:	25 91       	lpm	r18, Z+
    34ea:	34 91       	lpm	r19, Z
    34ec:	fe 01       	movw	r30, r28
    34ee:	ee 0f       	add	r30, r30
    34f0:	ff 1f       	adc	r31, r31
    34f2:	eb 5b       	subi	r30, 0xBB	; 187
    34f4:	fc 4f       	sbci	r31, 0xFC	; 252
    34f6:	31 83       	std	Z+1, r19	; 0x01
    34f8:	20 83       	st	Z, r18
    34fa:	20 81       	ld	r18, Z
    34fc:	31 81       	ldd	r19, Z+1	; 0x01
    34fe:	2f 3f       	cpi	r18, 0xFF	; 255
    3500:	3f 4f       	sbci	r19, 0xFF	; 255
    3502:	21 f4       	brne	.+8      	; 0x350c <seq_setservopos+0x46>
    3504:	6f ef       	ldi	r22, 0xFF	; 255
    3506:	7f ef       	ldi	r23, 0xFF	; 255
    3508:	0e 94 da 1c 	call	0x39b4	; 0x39b4 <servo_set>
    350c:	21 96       	adiw	r28, 0x01	; 1
    350e:	0e 5f       	subi	r16, 0xFE	; 254
    3510:	1f 4f       	sbci	r17, 0xFF	; 255
    3512:	ca 30       	cpi	r28, 0x0A	; 10
    3514:	d1 05       	cpc	r29, r1
    3516:	29 f7       	brne	.-54     	; 0x34e2 <seq_setservopos+0x1c>
    3518:	df 91       	pop	r29
    351a:	cf 91       	pop	r28
    351c:	1f 91       	pop	r17
    351e:	0f 91       	pop	r16
    3520:	08 95       	ret

00003522 <seq_dosequence>:
    3522:	ef 92       	push	r14
    3524:	ff 92       	push	r15
    3526:	0f 93       	push	r16
    3528:	1f 93       	push	r17
    352a:	cf 93       	push	r28
    352c:	df 93       	push	r29
    352e:	80 91 88 02 	lds	r24, 0x0288
    3532:	88 23       	and	r24, r24
    3534:	09 f4       	brne	.+2      	; 0x3538 <seq_dosequence+0x16>
    3536:	be c0       	rjmp	.+380    	; 0x36b4 <seq_dosequence+0x192>
    3538:	80 91 86 02 	lds	r24, 0x0286
    353c:	90 91 87 02 	lds	r25, 0x0287
    3540:	89 2b       	or	r24, r25
    3542:	09 f4       	brne	.+2      	; 0x3546 <seq_dosequence+0x24>
    3544:	b7 c0       	rjmp	.+366    	; 0x36b4 <seq_dosequence+0x192>
    3546:	0a e8       	ldi	r16, 0x8A	; 138
    3548:	12 e0       	ldi	r17, 0x02	; 2
    354a:	c0 e0       	ldi	r28, 0x00	; 0
    354c:	d0 e0       	ldi	r29, 0x00	; 0
    354e:	f8 01       	movw	r30, r16
    3550:	61 91       	ld	r22, Z+
    3552:	71 91       	ld	r23, Z+
    3554:	8f 01       	movw	r16, r30
    3556:	ae 01       	movw	r20, r28
    3558:	44 0f       	add	r20, r20
    355a:	55 1f       	adc	r21, r21
    355c:	da 01       	movw	r26, r20
    355e:	ab 5b       	subi	r26, 0xBB	; 187
    3560:	bc 4f       	sbci	r27, 0xFC	; 252
    3562:	2d 91       	ld	r18, X+
    3564:	3c 91       	ld	r19, X
    3566:	11 97       	sbiw	r26, 0x01	; 1
    3568:	fa 01       	movw	r30, r20
    356a:	e1 5d       	subi	r30, 0xD1	; 209
    356c:	fc 4f       	sbci	r31, 0xFC	; 252
    356e:	80 81       	ld	r24, Z
    3570:	91 81       	ldd	r25, Z+1	; 0x01
    3572:	28 1b       	sub	r18, r24
    3574:	39 0b       	sbc	r19, r25
    3576:	99 f1       	breq	.+102    	; 0x35de <seq_dosequence+0xbc>
    3578:	8c 2f       	mov	r24, r28
    357a:	8f 5f       	subi	r24, 0xFF	; 255
    357c:	61 15       	cp	r22, r1
    357e:	71 05       	cpc	r23, r1
    3580:	29 f0       	breq	.+10     	; 0x358c <seq_dosequence+0x6a>
    3582:	e0 80       	ld	r14, Z
    3584:	f1 80       	ldd	r15, Z+1	; 0x01
    3586:	ef 20       	and	r14, r15
    3588:	e0 94       	com	r14
    358a:	59 f4       	brne	.+22     	; 0x35a2 <seq_dosequence+0x80>
    358c:	fa 01       	movw	r30, r20
    358e:	eb 5b       	subi	r30, 0xBB	; 187
    3590:	fc 4f       	sbci	r31, 0xFC	; 252
    3592:	20 81       	ld	r18, Z
    3594:	31 81       	ldd	r19, Z+1	; 0x01
    3596:	fa 01       	movw	r30, r20
    3598:	e1 5d       	subi	r30, 0xD1	; 209
    359a:	fc 4f       	sbci	r31, 0xFC	; 252
    359c:	31 83       	std	Z+1, r19	; 0x01
    359e:	20 83       	st	Z, r18
    35a0:	1a c0       	rjmp	.+52     	; 0x35d6 <seq_dosequence+0xb4>
    35a2:	12 16       	cp	r1, r18
    35a4:	13 06       	cpc	r1, r19
    35a6:	44 f4       	brge	.+16     	; 0x35b8 <seq_dosequence+0x96>
    35a8:	62 17       	cp	r22, r18
    35aa:	73 07       	cpc	r23, r19
    35ac:	6c f4       	brge	.+26     	; 0x35c8 <seq_dosequence+0xa6>
    35ae:	20 81       	ld	r18, Z
    35b0:	31 81       	ldd	r19, Z+1	; 0x01
    35b2:	26 0f       	add	r18, r22
    35b4:	37 1f       	adc	r19, r23
    35b6:	0a c0       	rjmp	.+20     	; 0x35cc <seq_dosequence+0xaa>
    35b8:	26 17       	cp	r18, r22
    35ba:	37 07       	cpc	r19, r23
    35bc:	2c f4       	brge	.+10     	; 0x35c8 <seq_dosequence+0xa6>
    35be:	20 81       	ld	r18, Z
    35c0:	31 81       	ldd	r19, Z+1	; 0x01
    35c2:	26 1b       	sub	r18, r22
    35c4:	37 0b       	sbc	r19, r23
    35c6:	02 c0       	rjmp	.+4      	; 0x35cc <seq_dosequence+0xaa>
    35c8:	2d 91       	ld	r18, X+
    35ca:	3c 91       	ld	r19, X
    35cc:	31 83       	std	Z+1, r19	; 0x01
    35ce:	20 83       	st	Z, r18
    35d0:	fa 01       	movw	r30, r20
    35d2:	e1 5d       	subi	r30, 0xD1	; 209
    35d4:	fc 4f       	sbci	r31, 0xFC	; 252
    35d6:	60 81       	ld	r22, Z
    35d8:	71 81       	ldd	r23, Z+1	; 0x01
    35da:	0e 94 da 1c 	call	0x39b4	; 0x39b4 <servo_set>
    35de:	21 96       	adiw	r28, 0x01	; 1
    35e0:	ca 30       	cpi	r28, 0x0A	; 10
    35e2:	d1 05       	cpc	r29, r1
    35e4:	09 f0       	breq	.+2      	; 0x35e8 <seq_dosequence+0xc6>
    35e6:	b3 cf       	rjmp	.-154    	; 0x354e <seq_dosequence+0x2c>
    35e8:	80 91 59 03 	lds	r24, 0x0359
    35ec:	90 91 5a 03 	lds	r25, 0x035A
    35f0:	89 2b       	or	r24, r25
    35f2:	09 f0       	breq	.+2      	; 0x35f6 <seq_dosequence+0xd4>
    35f4:	5f c0       	rjmp	.+190    	; 0x36b4 <seq_dosequence+0x192>
    35f6:	60 91 89 02 	lds	r22, 0x0289
    35fa:	70 91 85 02 	lds	r23, 0x0285
    35fe:	46 2f       	mov	r20, r22
    3600:	50 e0       	ldi	r21, 0x00	; 0
    3602:	27 2f       	mov	r18, r23
    3604:	30 e0       	ldi	r19, 0x00	; 0
    3606:	21 50       	subi	r18, 0x01	; 1
    3608:	31 09       	sbc	r19, r1
    360a:	80 91 86 02 	lds	r24, 0x0286
    360e:	90 91 87 02 	lds	r25, 0x0287
    3612:	42 17       	cp	r20, r18
    3614:	53 07       	cpc	r21, r19
    3616:	bc f4       	brge	.+46     	; 0x3646 <seq_dosequence+0x124>
    3618:	0e 94 63 1a 	call	0x34c6	; 0x34c6 <seq_setservopos>
    361c:	20 91 89 02 	lds	r18, 0x0289
    3620:	e0 91 86 02 	lds	r30, 0x0286
    3624:	f0 91 87 02 	lds	r31, 0x0287
    3628:	86 e1       	ldi	r24, 0x16	; 22
    362a:	28 9f       	mul	r18, r24
    362c:	e0 0d       	add	r30, r0
    362e:	f1 1d       	adc	r31, r1
    3630:	11 24       	eor	r1, r1
    3632:	85 91       	lpm	r24, Z+
    3634:	94 91       	lpm	r25, Z
    3636:	90 93 5a 03 	sts	0x035A, r25
    363a:	80 93 59 03 	sts	0x0359, r24
    363e:	2f 5f       	subi	r18, 0xFF	; 255
    3640:	20 93 89 02 	sts	0x0289, r18
    3644:	37 c0       	rjmp	.+110    	; 0x36b4 <seq_dosequence+0x192>
    3646:	fc 01       	movw	r30, r24
    3648:	26 e1       	ldi	r18, 0x16	; 22
    364a:	72 9f       	mul	r23, r18
    364c:	e0 0d       	add	r30, r0
    364e:	f1 1d       	adc	r31, r1
    3650:	11 24       	eor	r1, r1
    3652:	76 97       	sbiw	r30, 0x16	; 22
    3654:	25 91       	lpm	r18, Z+
    3656:	34 91       	lpm	r19, Z
    3658:	6f ef       	ldi	r22, 0xFF	; 255
    365a:	67 0f       	add	r22, r23
    365c:	23 2b       	or	r18, r19
    365e:	99 f4       	brne	.+38     	; 0x3686 <seq_dosequence+0x164>
    3660:	0e 94 63 1a 	call	0x34c6	; 0x34c6 <seq_setservopos>
    3664:	10 92 88 02 	sts	0x0288, r1
    3668:	10 92 89 02 	sts	0x0289, r1
    366c:	e0 91 43 03 	lds	r30, 0x0343
    3670:	f0 91 44 03 	lds	r31, 0x0344
    3674:	30 97       	sbiw	r30, 0x00	; 0
    3676:	f1 f0       	breq	.+60     	; 0x36b4 <seq_dosequence+0x192>
    3678:	df 91       	pop	r29
    367a:	cf 91       	pop	r28
    367c:	1f 91       	pop	r17
    367e:	0f 91       	pop	r16
    3680:	ff 90       	pop	r15
    3682:	ef 90       	pop	r14
    3684:	09 94       	ijmp
    3686:	0e 94 63 1a 	call	0x34c6	; 0x34c6 <seq_setservopos>
    368a:	80 91 85 02 	lds	r24, 0x0285
    368e:	e6 e1       	ldi	r30, 0x16	; 22
    3690:	8e 9f       	mul	r24, r30
    3692:	c0 01       	movw	r24, r0
    3694:	11 24       	eor	r1, r1
    3696:	46 97       	sbiw	r24, 0x16	; 22
    3698:	e0 91 86 02 	lds	r30, 0x0286
    369c:	f0 91 87 02 	lds	r31, 0x0287
    36a0:	e8 0f       	add	r30, r24
    36a2:	f9 1f       	adc	r31, r25
    36a4:	85 91       	lpm	r24, Z+
    36a6:	94 91       	lpm	r25, Z
    36a8:	90 93 5a 03 	sts	0x035A, r25
    36ac:	80 93 59 03 	sts	0x0359, r24
    36b0:	10 92 89 02 	sts	0x0289, r1
    36b4:	df 91       	pop	r29
    36b6:	cf 91       	pop	r28
    36b8:	1f 91       	pop	r17
    36ba:	0f 91       	pop	r16
    36bc:	ff 90       	pop	r15
    36be:	ef 90       	pop	r14
    36c0:	08 95       	ret

000036c2 <serial_init>:
    36c2:	cf 93       	push	r28
    36c4:	cf b7       	in	r28, 0x3f	; 63
    36c6:	9c 01       	movw	r18, r24
    36c8:	40 e0       	ldi	r20, 0x00	; 0
    36ca:	50 e0       	ldi	r21, 0x00	; 0
    36cc:	84 e0       	ldi	r24, 0x04	; 4
    36ce:	22 0f       	add	r18, r18
    36d0:	33 1f       	adc	r19, r19
    36d2:	44 1f       	adc	r20, r20
    36d4:	55 1f       	adc	r21, r21
    36d6:	8a 95       	dec	r24
    36d8:	d1 f7       	brne	.-12     	; 0x36ce <serial_init+0xc>
    36da:	60 e0       	ldi	r22, 0x00	; 0
    36dc:	74 e2       	ldi	r23, 0x24	; 36
    36de:	84 ef       	ldi	r24, 0xF4	; 244
    36e0:	90 e0       	ldi	r25, 0x00	; 0
    36e2:	0e 94 7d 21 	call	0x42fa	; 0x42fa <__udivmodsi4>
    36e6:	21 50       	subi	r18, 0x01	; 1
    36e8:	31 09       	sbc	r19, r1
    36ea:	30 93 c5 00 	sts	0x00C5, r19
    36ee:	20 93 c4 00 	sts	0x00C4, r18
    36f2:	f8 94       	cli
    36f4:	10 92 c0 00 	sts	0x00C0, r1
    36f8:	88 e9       	ldi	r24, 0x98	; 152
    36fa:	80 93 c1 00 	sts	0x00C1, r24
    36fe:	86 e0       	ldi	r24, 0x06	; 6
    3700:	80 93 c2 00 	sts	0x00C2, r24
    3704:	80 91 c6 00 	lds	r24, 0x00C6
    3708:	80 91 c0 00 	lds	r24, 0x00C0
    370c:	87 fd       	sbrc	r24, 7
    370e:	fa cf       	rjmp	.-12     	; 0x3704 <serial_init+0x42>
    3710:	80 ec       	ldi	r24, 0xC0	; 192
    3712:	80 93 c0 00 	sts	0x00C0, r24
    3716:	cf bf       	out	0x3f, r28	; 63
    3718:	78 94       	sei
    371a:	40 e4       	ldi	r20, 0x40	; 64
    371c:	6b e5       	ldi	r22, 0x5B	; 91
    371e:	73 e0       	ldi	r23, 0x03	; 3
    3720:	83 ea       	ldi	r24, 0xA3	; 163
    3722:	93 e0       	ldi	r25, 0x03	; 3
    3724:	0e 94 8f 0e 	call	0x1d1e	; 0x1d1e <fifo_init>
    3728:	4f ef       	ldi	r20, 0xFF	; 255
    372a:	6b ea       	ldi	r22, 0xAB	; 171
    372c:	73 e0       	ldi	r23, 0x03	; 3
    372e:	8b e9       	ldi	r24, 0x9B	; 155
    3730:	93 e0       	ldi	r25, 0x03	; 3
    3732:	cf 91       	pop	r28
    3734:	0c 94 8f 0e 	jmp	0x1d1e	; 0x1d1e <fifo_init>

00003738 <serial_init_9600b8N1>:
    3738:	80 e8       	ldi	r24, 0x80	; 128
    373a:	95 e2       	ldi	r25, 0x25	; 37
    373c:	0c 94 61 1b 	jmp	0x36c2	; 0x36c2 <serial_init>

00003740 <serial_init_9600b7E1>:
    3740:	80 e8       	ldi	r24, 0x80	; 128
    3742:	95 e2       	ldi	r25, 0x25	; 37
    3744:	0e 94 61 1b 	call	0x36c2	; 0x36c2 <serial_init>
    3748:	84 e2       	ldi	r24, 0x24	; 36
    374a:	80 93 c2 00 	sts	0x00C2, r24
    374e:	08 95       	ret

00003750 <serial_enable_rx_interrupt>:
    3750:	e1 ec       	ldi	r30, 0xC1	; 193
    3752:	f0 e0       	ldi	r31, 0x00	; 0
    3754:	80 81       	ld	r24, Z
    3756:	80 68       	ori	r24, 0x80	; 128
    3758:	80 83       	st	Z, r24
    375a:	08 95       	ret

0000375c <serial_disable_rx_interrupt>:
    375c:	e1 ec       	ldi	r30, 0xC1	; 193
    375e:	f0 e0       	ldi	r31, 0x00	; 0
    3760:	80 81       	ld	r24, Z
    3762:	8f 77       	andi	r24, 0x7F	; 127
    3764:	80 83       	st	Z, r24
    3766:	08 95       	ret

00003768 <__vector_18>:
    3768:	1f 92       	push	r1
    376a:	0f 92       	push	r0
    376c:	0f b6       	in	r0, 0x3f	; 63
    376e:	0f 92       	push	r0
    3770:	11 24       	eor	r1, r1
    3772:	2f 93       	push	r18
    3774:	8f 93       	push	r24
    3776:	9f 93       	push	r25
    3778:	ef 93       	push	r30
    377a:	ff 93       	push	r31
    377c:	20 91 c6 00 	lds	r18, 0x00C6
    3780:	90 91 a3 03 	lds	r25, 0x03A3
    3784:	80 91 a4 03 	lds	r24, 0x03A4
    3788:	98 17       	cp	r25, r24
    378a:	e8 f4       	brcc	.+58     	; 0x37c6 <__vector_18+0x5e>
    378c:	e0 91 a7 03 	lds	r30, 0x03A7
    3790:	f0 91 a8 03 	lds	r31, 0x03A8
    3794:	cf 01       	movw	r24, r30
    3796:	01 96       	adiw	r24, 0x01	; 1
    3798:	20 83       	st	Z, r18
    379a:	20 91 aa 03 	lds	r18, 0x03AA
    379e:	21 50       	subi	r18, 0x01	; 1
    37a0:	21 f4       	brne	.+8      	; 0x37aa <__vector_18+0x42>
    37a2:	20 91 a4 03 	lds	r18, 0x03A4
    37a6:	82 1b       	sub	r24, r18
    37a8:	91 09       	sbc	r25, r1
    37aa:	20 93 aa 03 	sts	0x03AA, r18
    37ae:	90 93 a8 03 	sts	0x03A8, r25
    37b2:	80 93 a7 03 	sts	0x03A7, r24
    37b6:	9f b7       	in	r25, 0x3f	; 63
    37b8:	f8 94       	cli
    37ba:	80 91 a3 03 	lds	r24, 0x03A3
    37be:	8f 5f       	subi	r24, 0xFF	; 255
    37c0:	80 93 a3 03 	sts	0x03A3, r24
    37c4:	9f bf       	out	0x3f, r25	; 63
    37c6:	ff 91       	pop	r31
    37c8:	ef 91       	pop	r30
    37ca:	9f 91       	pop	r25
    37cc:	8f 91       	pop	r24
    37ce:	2f 91       	pop	r18
    37d0:	0f 90       	pop	r0
    37d2:	0f be       	out	0x3f, r0	; 63
    37d4:	0f 90       	pop	r0
    37d6:	1f 90       	pop	r1
    37d8:	18 95       	reti

000037da <__vector_19>:
    37da:	1f 92       	push	r1
    37dc:	0f 92       	push	r0
    37de:	0f b6       	in	r0, 0x3f	; 63
    37e0:	0f 92       	push	r0
    37e2:	11 24       	eor	r1, r1
    37e4:	2f 93       	push	r18
    37e6:	3f 93       	push	r19
    37e8:	8f 93       	push	r24
    37ea:	9f 93       	push	r25
    37ec:	ef 93       	push	r30
    37ee:	ff 93       	push	r31
    37f0:	80 91 9b 03 	lds	r24, 0x039B
    37f4:	88 23       	and	r24, r24
    37f6:	01 f1       	breq	.+64     	; 0x3838 <__vector_19+0x5e>
    37f8:	e0 91 9d 03 	lds	r30, 0x039D
    37fc:	f0 91 9e 03 	lds	r31, 0x039E
    3800:	cf 01       	movw	r24, r30
    3802:	01 96       	adiw	r24, 0x01	; 1
    3804:	30 81       	ld	r19, Z
    3806:	20 91 a1 03 	lds	r18, 0x03A1
    380a:	21 50       	subi	r18, 0x01	; 1
    380c:	21 f4       	brne	.+8      	; 0x3816 <__vector_19+0x3c>
    380e:	20 91 9c 03 	lds	r18, 0x039C
    3812:	82 1b       	sub	r24, r18
    3814:	91 09       	sbc	r25, r1
    3816:	90 93 9e 03 	sts	0x039E, r25
    381a:	80 93 9d 03 	sts	0x039D, r24
    381e:	20 93 a1 03 	sts	0x03A1, r18
    3822:	9f b7       	in	r25, 0x3f	; 63
    3824:	f8 94       	cli
    3826:	80 91 9b 03 	lds	r24, 0x039B
    382a:	81 50       	subi	r24, 0x01	; 1
    382c:	80 93 9b 03 	sts	0x039B, r24
    3830:	9f bf       	out	0x3f, r25	; 63
    3832:	30 93 c6 00 	sts	0x00C6, r19
    3836:	05 c0       	rjmp	.+10     	; 0x3842 <__vector_19+0x68>
    3838:	80 91 c1 00 	lds	r24, 0x00C1
    383c:	8f 7d       	andi	r24, 0xDF	; 223
    383e:	80 93 c1 00 	sts	0x00C1, r24
    3842:	ff 91       	pop	r31
    3844:	ef 91       	pop	r30
    3846:	9f 91       	pop	r25
    3848:	8f 91       	pop	r24
    384a:	3f 91       	pop	r19
    384c:	2f 91       	pop	r18
    384e:	0f 90       	pop	r0
    3850:	0f be       	out	0x3f, r0	; 63
    3852:	0f 90       	pop	r0
    3854:	1f 90       	pop	r1
    3856:	18 95       	reti

00003858 <serial_putc>:
    3858:	68 2f       	mov	r22, r24
    385a:	8b e9       	ldi	r24, 0x9B	; 155
    385c:	93 e0       	ldi	r25, 0x03	; 3
    385e:	0e 94 99 0e 	call	0x1d32	; 0x1d32 <fifo_put>
    3862:	e1 ec       	ldi	r30, 0xC1	; 193
    3864:	f0 e0       	ldi	r31, 0x00	; 0
    3866:	90 81       	ld	r25, Z
    3868:	90 62       	ori	r25, 0x20	; 32
    386a:	90 83       	st	Z, r25
    386c:	08 95       	ret

0000386e <serial_available>:
    386e:	83 ea       	ldi	r24, 0xA3	; 163
    3870:	93 e0       	ldi	r25, 0x03	; 3
    3872:	0e 94 c7 0e 	call	0x1d8e	; 0x1d8e <fifo_available>
    3876:	08 95       	ret

00003878 <serial_tx_complete>:
    3878:	8b e9       	ldi	r24, 0x9B	; 155
    387a:	93 e0       	ldi	r25, 0x03	; 3
    387c:	0e 94 c7 0e 	call	0x1d8e	; 0x1d8e <fifo_available>
    3880:	21 e0       	ldi	r18, 0x01	; 1
    3882:	89 2b       	or	r24, r25
    3884:	09 f0       	breq	.+2      	; 0x3888 <serial_tx_complete+0x10>
    3886:	20 e0       	ldi	r18, 0x00	; 0
    3888:	82 2f       	mov	r24, r18
    388a:	08 95       	ret

0000388c <serial_getc>:
    388c:	83 ea       	ldi	r24, 0xA3	; 163
    388e:	93 e0       	ldi	r25, 0x03	; 3
    3890:	0e 94 bc 0e 	call	0x1d78	; 0x1d78 <fifo_get_nowait>
    3894:	08 95       	ret

00003896 <serial_getc_nowait>:
    3896:	83 ea       	ldi	r24, 0xA3	; 163
    3898:	93 e0       	ldi	r25, 0x03	; 3
    389a:	0e 94 bc 0e 	call	0x1d78	; 0x1d78 <fifo_get_nowait>
    389e:	08 95       	ret

000038a0 <serial_getc_wait>:
    38a0:	83 ea       	ldi	r24, 0xA3	; 163
    38a2:	93 e0       	ldi	r25, 0x03	; 3
    38a4:	0c 94 b6 0e 	jmp	0x1d6c	; 0x1d6c <fifo_get_wait>

000038a8 <serial_puts>:
    38a8:	ff 92       	push	r15
    38aa:	0f 93       	push	r16
    38ac:	1f 93       	push	r17
    38ae:	cf 93       	push	r28
    38b0:	df 93       	push	r29
    38b2:	8c 01       	movw	r16, r24
    38b4:	f1 2c       	mov	r15, r1
    38b6:	e8 01       	movw	r28, r16
    38b8:	cf 0d       	add	r28, r15
    38ba:	d1 1d       	adc	r29, r1
    38bc:	88 81       	ld	r24, Y
    38be:	88 23       	and	r24, r24
    38c0:	61 f0       	breq	.+24     	; 0x38da <serial_puts+0x32>
    38c2:	8f ef       	ldi	r24, 0xFF	; 255
    38c4:	f8 16       	cp	r15, r24
    38c6:	49 f0       	breq	.+18     	; 0x38da <serial_puts+0x32>
    38c8:	0e 94 3c 1c 	call	0x3878	; 0x3878 <serial_tx_complete>
    38cc:	88 23       	and	r24, r24
    38ce:	e1 f3       	breq	.-8      	; 0x38c8 <serial_puts+0x20>
    38d0:	88 81       	ld	r24, Y
    38d2:	0e 94 2c 1c 	call	0x3858	; 0x3858 <serial_putc>
    38d6:	f3 94       	inc	r15
    38d8:	ee cf       	rjmp	.-36     	; 0x38b6 <serial_puts+0xe>
    38da:	df 91       	pop	r29
    38dc:	cf 91       	pop	r28
    38de:	1f 91       	pop	r17
    38e0:	0f 91       	pop	r16
    38e2:	ff 90       	pop	r15
    38e4:	08 95       	ret

000038e6 <serial_puts_nowait>:
    38e6:	0f 93       	push	r16
    38e8:	1f 93       	push	r17
    38ea:	cf 93       	push	r28
    38ec:	df 93       	push	r29
    38ee:	ec 01       	movw	r28, r24
    38f0:	01 e0       	ldi	r16, 0x01	; 1
    38f2:	10 e0       	ldi	r17, 0x00	; 0
    38f4:	fe 01       	movw	r30, r28
    38f6:	e1 0f       	add	r30, r17
    38f8:	f1 1d       	adc	r31, r1
    38fa:	80 81       	ld	r24, Z
    38fc:	88 23       	and	r24, r24
    38fe:	39 f0       	breq	.+14     	; 0x390e <serial_puts_nowait+0x28>
    3900:	1f 3f       	cpi	r17, 0xFF	; 255
    3902:	29 f0       	breq	.+10     	; 0x390e <serial_puts_nowait+0x28>
    3904:	0e 94 2c 1c 	call	0x3858	; 0x3858 <serial_putc>
    3908:	08 23       	and	r16, r24
    390a:	1f 5f       	subi	r17, 0xFF	; 255
    390c:	f3 cf       	rjmp	.-26     	; 0x38f4 <serial_puts_nowait+0xe>
    390e:	80 2f       	mov	r24, r16
    3910:	df 91       	pop	r29
    3912:	cf 91       	pop	r28
    3914:	1f 91       	pop	r17
    3916:	0f 91       	pop	r16
    3918:	08 95       	ret

0000391a <serial_puts_p>:
    391a:	1f 93       	push	r17
    391c:	cf 93       	push	r28
    391e:	df 93       	push	r29
    3920:	ec 01       	movw	r28, r24
    3922:	fe 01       	movw	r30, r28
    3924:	14 91       	lpm	r17, Z
    3926:	11 23       	and	r17, r17
    3928:	49 f0       	breq	.+18     	; 0x393c <serial_puts_p+0x22>
    392a:	0e 94 3c 1c 	call	0x3878	; 0x3878 <serial_tx_complete>
    392e:	88 23       	and	r24, r24
    3930:	e1 f3       	breq	.-8      	; 0x392a <serial_puts_p+0x10>
    3932:	81 2f       	mov	r24, r17
    3934:	0e 94 2c 1c 	call	0x3858	; 0x3858 <serial_putc>
    3938:	21 96       	adiw	r28, 0x01	; 1
    393a:	f3 cf       	rjmp	.-26     	; 0x3922 <serial_puts_p+0x8>
    393c:	df 91       	pop	r29
    393e:	cf 91       	pop	r28
    3940:	1f 91       	pop	r17
    3942:	08 95       	ret

00003944 <servo_start>:
    3944:	8a e0       	ldi	r24, 0x0A	; 10
    3946:	80 93 9e 02 	sts	0x029E, r24
    394a:	80 e2       	ldi	r24, 0x20	; 32
    394c:	9e e4       	ldi	r25, 0x4E	; 78
    394e:	90 93 85 00 	sts	0x0085, r25
    3952:	80 93 84 00 	sts	0x0084, r24
    3956:	ef e6       	ldi	r30, 0x6F	; 111
    3958:	f0 e0       	ldi	r31, 0x00	; 0
    395a:	80 81       	ld	r24, Z
    395c:	81 60       	ori	r24, 0x01	; 1
    395e:	80 83       	st	Z, r24
    3960:	78 94       	sei
    3962:	e1 e8       	ldi	r30, 0x81	; 129
    3964:	f0 e0       	ldi	r31, 0x00	; 0
    3966:	80 81       	ld	r24, Z
    3968:	82 60       	ori	r24, 0x02	; 2
    396a:	80 83       	st	Z, r24
    396c:	08 95       	ret

0000396e <servo_stop>:
    396e:	cf 93       	push	r28
    3970:	df 93       	push	r29
    3972:	e4 ed       	ldi	r30, 0xD4	; 212
    3974:	f4 e0       	ldi	r31, 0x04	; 4
    3976:	c7 ec       	ldi	r28, 0xC7	; 199
    3978:	d4 e0       	ldi	r29, 0x04	; 4
    397a:	21 e0       	ldi	r18, 0x01	; 1
    397c:	30 e0       	ldi	r19, 0x00	; 0
    397e:	a1 91       	ld	r26, Z+
    3980:	b1 91       	ld	r27, Z+
    3982:	4c 91       	ld	r20, X
    3984:	c9 01       	movw	r24, r18
    3986:	09 90       	ld	r0, Y+
    3988:	02 c0       	rjmp	.+4      	; 0x398e <servo_stop+0x20>
    398a:	88 0f       	add	r24, r24
    398c:	99 1f       	adc	r25, r25
    398e:	0a 94       	dec	r0
    3990:	e2 f7       	brpl	.-8      	; 0x398a <servo_stop+0x1c>
    3992:	80 95       	com	r24
    3994:	84 23       	and	r24, r20
    3996:	8c 93       	st	X, r24
    3998:	84 e0       	ldi	r24, 0x04	; 4
    399a:	e8 3e       	cpi	r30, 0xE8	; 232
    399c:	f8 07       	cpc	r31, r24
    399e:	79 f7       	brne	.-34     	; 0x397e <servo_stop+0x10>
    39a0:	80 91 6f 00 	lds	r24, 0x006F
    39a4:	8e 7f       	andi	r24, 0xFE	; 254
    39a6:	80 93 6f 00 	sts	0x006F, r24
    39aa:	10 92 81 00 	sts	0x0081, r1
    39ae:	df 91       	pop	r29
    39b0:	cf 91       	pop	r28
    39b2:	08 95       	ret

000039b4 <servo_set>:
    39b4:	9f ef       	ldi	r25, 0xFF	; 255
    39b6:	98 0f       	add	r25, r24
    39b8:	9a 30       	cpi	r25, 0x0A	; 10
    39ba:	10 f5       	brcc	.+68     	; 0x3a00 <servo_set+0x4c>
    39bc:	e8 2f       	mov	r30, r24
    39be:	f0 e0       	ldi	r31, 0x00	; 0
    39c0:	77 ff       	sbrs	r23, 7
    39c2:	09 c0       	rjmp	.+18     	; 0x39d6 <servo_set+0x22>
    39c4:	ee 0f       	add	r30, r30
    39c6:	ff 1f       	adc	r31, r31
    39c8:	e8 55       	subi	r30, 0x58	; 88
    39ca:	fb 4f       	sbci	r31, 0xFB	; 251
    39cc:	8f ef       	ldi	r24, 0xFF	; 255
    39ce:	9f ef       	ldi	r25, 0xFF	; 255
    39d0:	91 83       	std	Z+1, r25	; 0x01
    39d2:	80 83       	st	Z, r24
    39d4:	08 95       	ret
    39d6:	65 3c       	cpi	r22, 0xC5	; 197
    39d8:	89 e0       	ldi	r24, 0x09	; 9
    39da:	78 07       	cpc	r23, r24
    39dc:	3c f4       	brge	.+14     	; 0x39ec <servo_set+0x38>
    39de:	64 3f       	cpi	r22, 0xF4	; 244
    39e0:	81 e0       	ldi	r24, 0x01	; 1
    39e2:	78 07       	cpc	r23, r24
    39e4:	2c f4       	brge	.+10     	; 0x39f0 <servo_set+0x3c>
    39e6:	64 ef       	ldi	r22, 0xF4	; 244
    39e8:	71 e0       	ldi	r23, 0x01	; 1
    39ea:	02 c0       	rjmp	.+4      	; 0x39f0 <servo_set+0x3c>
    39ec:	64 ec       	ldi	r22, 0xC4	; 196
    39ee:	79 e0       	ldi	r23, 0x09	; 9
    39f0:	ee 0f       	add	r30, r30
    39f2:	ff 1f       	adc	r31, r31
    39f4:	e8 55       	subi	r30, 0x58	; 88
    39f6:	fb 4f       	sbci	r31, 0xFB	; 251
    39f8:	66 0f       	add	r22, r22
    39fa:	77 1f       	adc	r23, r23
    39fc:	71 83       	std	Z+1, r23	; 0x01
    39fe:	60 83       	st	Z, r22
    3a00:	08 95       	ret

00003a02 <servo_read>:
    3a02:	9f ef       	ldi	r25, 0xFF	; 255
    3a04:	98 0f       	add	r25, r24
    3a06:	9a 30       	cpi	r25, 0x0A	; 10
    3a08:	78 f4       	brcc	.+30     	; 0x3a28 <servo_read+0x26>
    3a0a:	e8 2f       	mov	r30, r24
    3a0c:	f0 e0       	ldi	r31, 0x00	; 0
    3a0e:	ee 0f       	add	r30, r30
    3a10:	ff 1f       	adc	r31, r31
    3a12:	e8 55       	subi	r30, 0x58	; 88
    3a14:	fb 4f       	sbci	r31, 0xFB	; 251
    3a16:	80 81       	ld	r24, Z
    3a18:	91 81       	ldd	r25, Z+1	; 0x01
    3a1a:	8f 3f       	cpi	r24, 0xFF	; 255
    3a1c:	2f ef       	ldi	r18, 0xFF	; 255
    3a1e:	92 07       	cpc	r25, r18
    3a20:	31 f0       	breq	.+12     	; 0x3a2e <servo_read+0x2c>
    3a22:	96 95       	lsr	r25
    3a24:	87 95       	ror	r24
    3a26:	08 95       	ret
    3a28:	80 e0       	ldi	r24, 0x00	; 0
    3a2a:	90 e0       	ldi	r25, 0x00	; 0
    3a2c:	08 95       	ret
    3a2e:	8f ef       	ldi	r24, 0xFF	; 255
    3a30:	9f ef       	ldi	r25, 0xFF	; 255
    3a32:	08 95       	ret

00003a34 <servo_RCread>:
    3a34:	80 91 d3 04 	lds	r24, 0x04D3
    3a38:	8a 30       	cpi	r24, 0x0A	; 10
    3a3a:	40 f0       	brcs	.+16     	; 0x3a4c <servo_RCread+0x18>
    3a3c:	8f ef       	ldi	r24, 0xFF	; 255
    3a3e:	9f ef       	ldi	r25, 0xFF	; 255
    3a40:	90 93 f0 04 	sts	0x04F0, r25
    3a44:	80 93 ef 04 	sts	0x04EF, r24
    3a48:	9f ef       	ldi	r25, 0xFF	; 255
    3a4a:	08 95       	ret
    3a4c:	80 91 d3 04 	lds	r24, 0x04D3
    3a50:	81 11       	cpse	r24, r1
    3a52:	15 c0       	rjmp	.+42     	; 0x3a7e <servo_RCread+0x4a>
    3a54:	80 91 c2 04 	lds	r24, 0x04C2
    3a58:	88 23       	and	r24, r24
    3a5a:	89 f0       	breq	.+34     	; 0x3a7e <servo_RCread+0x4a>
    3a5c:	80 91 ed 04 	lds	r24, 0x04ED
    3a60:	90 91 ee 04 	lds	r25, 0x04EE
    3a64:	97 fd       	sbrc	r25, 7
    3a66:	01 96       	adiw	r24, 0x01	; 1
    3a68:	9c 01       	movw	r18, r24
    3a6a:	35 95       	asr	r19
    3a6c:	27 95       	ror	r18
    3a6e:	30 93 f0 04 	sts	0x04F0, r19
    3a72:	20 93 ef 04 	sts	0x04EF, r18
    3a76:	10 92 c2 04 	sts	0x04C2, r1
    3a7a:	c9 01       	movw	r24, r18
    3a7c:	08 95       	ret
    3a7e:	80 91 ef 04 	lds	r24, 0x04EF
    3a82:	90 91 f0 04 	lds	r25, 0x04F0
    3a86:	08 95       	ret

00003a88 <servo_doRCread_init>:
    3a88:	80 b7       	in	r24, 0x30	; 48
    3a8a:	8b 7f       	andi	r24, 0xFB	; 251
    3a8c:	80 bf       	out	0x30, r24	; 48
    3a8e:	e1 e8       	ldi	r30, 0x81	; 129
    3a90:	f0 e0       	ldi	r31, 0x00	; 0
    3a92:	80 81       	ld	r24, Z
    3a94:	8f 77       	andi	r24, 0x7F	; 127
    3a96:	80 83       	st	Z, r24
    3a98:	ef e6       	ldi	r30, 0x6F	; 111
    3a9a:	f0 e0       	ldi	r31, 0x00	; 0
    3a9c:	80 81       	ld	r24, Z
    3a9e:	8f 7d       	andi	r24, 0xDF	; 223
    3aa0:	80 83       	st	Z, r24
    3aa2:	20 98       	cbi	0x04, 0	; 4
    3aa4:	10 92 c6 04 	sts	0x04C6, r1
    3aa8:	10 92 c5 04 	sts	0x04C5, r1
    3aac:	10 92 c4 04 	sts	0x04C4, r1
    3ab0:	10 92 c3 04 	sts	0x04C3, r1
    3ab4:	10 92 ec 04 	sts	0x04EC, r1
    3ab8:	10 92 d3 04 	sts	0x04D3, r1
    3abc:	8f ef       	ldi	r24, 0xFF	; 255
    3abe:	9f ef       	ldi	r25, 0xFF	; 255
    3ac0:	90 93 f0 04 	sts	0x04F0, r25
    3ac4:	80 93 ef 04 	sts	0x04EF, r24
    3ac8:	08 95       	ret

00003aca <servo_init>:
    3aca:	cf 93       	push	r28
    3acc:	df 93       	push	r29
    3ace:	ea ea       	ldi	r30, 0xAA	; 170
    3ad0:	f4 e0       	ldi	r31, 0x04	; 4
    3ad2:	8f ef       	ldi	r24, 0xFF	; 255
    3ad4:	9f ef       	ldi	r25, 0xFF	; 255
    3ad6:	81 93       	st	Z+, r24
    3ad8:	91 93       	st	Z+, r25
    3ada:	24 e0       	ldi	r18, 0x04	; 4
    3adc:	e2 3c       	cpi	r30, 0xC2	; 194
    3ade:	f2 07       	cpc	r31, r18
    3ae0:	d1 f7       	brne	.-12     	; 0x3ad6 <servo_init+0xc>
    3ae2:	8b e2       	ldi	r24, 0x2B	; 43
    3ae4:	90 e0       	ldi	r25, 0x00	; 0
    3ae6:	90 93 d5 04 	sts	0x04D5, r25
    3aea:	80 93 d4 04 	sts	0x04D4, r24
    3aee:	90 93 d7 04 	sts	0x04D7, r25
    3af2:	80 93 d6 04 	sts	0x04D6, r24
    3af6:	90 93 d9 04 	sts	0x04D9, r25
    3afa:	80 93 d8 04 	sts	0x04D8, r24
    3afe:	90 93 db 04 	sts	0x04DB, r25
    3b02:	80 93 da 04 	sts	0x04DA, r24
    3b06:	90 93 dd 04 	sts	0x04DD, r25
    3b0a:	80 93 dc 04 	sts	0x04DC, r24
    3b0e:	85 e2       	ldi	r24, 0x25	; 37
    3b10:	90 e0       	ldi	r25, 0x00	; 0
    3b12:	90 93 df 04 	sts	0x04DF, r25
    3b16:	80 93 de 04 	sts	0x04DE, r24
    3b1a:	90 93 e1 04 	sts	0x04E1, r25
    3b1e:	80 93 e0 04 	sts	0x04E0, r24
    3b22:	90 93 e3 04 	sts	0x04E3, r25
    3b26:	80 93 e2 04 	sts	0x04E2, r24
    3b2a:	90 93 e5 04 	sts	0x04E5, r25
    3b2e:	80 93 e4 04 	sts	0x04E4, r24
    3b32:	90 93 e7 04 	sts	0x04E7, r25
    3b36:	80 93 e6 04 	sts	0x04E6, r24
    3b3a:	90 93 e9 04 	sts	0x04E9, r25
    3b3e:	80 93 e8 04 	sts	0x04E8, r24
    3b42:	90 93 eb 04 	sts	0x04EB, r25
    3b46:	80 93 ea 04 	sts	0x04EA, r24
    3b4a:	32 e0       	ldi	r19, 0x02	; 2
    3b4c:	30 93 c7 04 	sts	0x04C7, r19
    3b50:	23 e0       	ldi	r18, 0x03	; 3
    3b52:	20 93 c8 04 	sts	0x04C8, r18
    3b56:	94 e0       	ldi	r25, 0x04	; 4
    3b58:	90 93 c9 04 	sts	0x04C9, r25
    3b5c:	85 e0       	ldi	r24, 0x05	; 5
    3b5e:	80 93 ca 04 	sts	0x04CA, r24
    3b62:	46 e0       	ldi	r20, 0x06	; 6
    3b64:	40 93 cb 04 	sts	0x04CB, r20
    3b68:	41 e0       	ldi	r20, 0x01	; 1
    3b6a:	40 93 cc 04 	sts	0x04CC, r20
    3b6e:	30 93 cd 04 	sts	0x04CD, r19
    3b72:	20 93 ce 04 	sts	0x04CE, r18
    3b76:	90 93 cf 04 	sts	0x04CF, r25
    3b7a:	80 93 d0 04 	sts	0x04D0, r24
    3b7e:	8b e0       	ldi	r24, 0x0B	; 11
    3b80:	80 93 d1 04 	sts	0x04D1, r24
    3b84:	8c e0       	ldi	r24, 0x0C	; 12
    3b86:	80 93 d2 04 	sts	0x04D2, r24
    3b8a:	c7 ec       	ldi	r28, 0xC7	; 199
    3b8c:	d4 e0       	ldi	r29, 0x04	; 4
    3b8e:	e4 ed       	ldi	r30, 0xD4	; 212
    3b90:	f4 e0       	ldi	r31, 0x04	; 4
    3b92:	21 e0       	ldi	r18, 0x01	; 1
    3b94:	30 e0       	ldi	r19, 0x00	; 0
    3b96:	a1 91       	ld	r26, Z+
    3b98:	b1 91       	ld	r27, Z+
    3b9a:	4c 91       	ld	r20, X
    3b9c:	c9 01       	movw	r24, r18
    3b9e:	09 90       	ld	r0, Y+
    3ba0:	02 c0       	rjmp	.+4      	; 0x3ba6 <servo_init+0xdc>
    3ba2:	88 0f       	add	r24, r24
    3ba4:	99 1f       	adc	r25, r25
    3ba6:	0a 94       	dec	r0
    3ba8:	e2 f7       	brpl	.-8      	; 0x3ba2 <servo_init+0xd8>
    3baa:	80 95       	com	r24
    3bac:	84 23       	and	r24, r20
    3bae:	8c 93       	st	X, r24
    3bb0:	84 e0       	ldi	r24, 0x04	; 4
    3bb2:	e8 3e       	cpi	r30, 0xE8	; 232
    3bb4:	f8 07       	cpc	r31, r24
    3bb6:	79 f7       	brne	.-34     	; 0x3b96 <servo_init+0xcc>
    3bb8:	c7 ec       	ldi	r28, 0xC7	; 199
    3bba:	d4 e0       	ldi	r29, 0x04	; 4
    3bbc:	e4 ed       	ldi	r30, 0xD4	; 212
    3bbe:	f4 e0       	ldi	r31, 0x04	; 4
    3bc0:	21 e0       	ldi	r18, 0x01	; 1
    3bc2:	30 e0       	ldi	r19, 0x00	; 0
    3bc4:	a1 91       	ld	r26, Z+
    3bc6:	b1 91       	ld	r27, Z+
    3bc8:	4e 91       	ld	r20, -X
    3bca:	c9 01       	movw	r24, r18
    3bcc:	09 90       	ld	r0, Y+
    3bce:	02 c0       	rjmp	.+4      	; 0x3bd4 <servo_init+0x10a>
    3bd0:	88 0f       	add	r24, r24
    3bd2:	99 1f       	adc	r25, r25
    3bd4:	0a 94       	dec	r0
    3bd6:	e2 f7       	brpl	.-8      	; 0x3bd0 <servo_init+0x106>
    3bd8:	48 2b       	or	r20, r24
    3bda:	4c 93       	st	X, r20
    3bdc:	84 e0       	ldi	r24, 0x04	; 4
    3bde:	e8 3e       	cpi	r30, 0xE8	; 232
    3be0:	f8 07       	cpc	r31, r24
    3be2:	81 f7       	brne	.-32     	; 0x3bc4 <servo_init+0xfa>
    3be4:	80 91 6f 00 	lds	r24, 0x006F
    3be8:	8e 7f       	andi	r24, 0xFE	; 254
    3bea:	80 93 6f 00 	sts	0x006F, r24
    3bee:	8a e0       	ldi	r24, 0x0A	; 10
    3bf0:	80 93 9e 02 	sts	0x029E, r24
    3bf4:	10 92 80 00 	sts	0x0080, r1
    3bf8:	80 e2       	ldi	r24, 0x20	; 32
    3bfa:	9e e4       	ldi	r25, 0x4E	; 78
    3bfc:	90 93 85 00 	sts	0x0085, r25
    3c00:	80 93 84 00 	sts	0x0084, r24
    3c04:	0e 94 44 1d 	call	0x3a88	; 0x3a88 <servo_doRCread_init>
    3c08:	df 91       	pop	r29
    3c0a:	cf 91       	pop	r28
    3c0c:	0c 94 a2 1c 	jmp	0x3944	; 0x3944 <servo_start>

00003c10 <servo_doRCread_start>:
    3c10:	e1 e8       	ldi	r30, 0x81	; 129
    3c12:	f0 e0       	ldi	r31, 0x00	; 0
    3c14:	80 81       	ld	r24, Z
    3c16:	80 64       	ori	r24, 0x40	; 64
    3c18:	80 83       	st	Z, r24
    3c1a:	b5 9a       	sbi	0x16, 5	; 22
    3c1c:	10 92 ec 04 	sts	0x04EC, r1
    3c20:	ef e6       	ldi	r30, 0x6F	; 111
    3c22:	f0 e0       	ldi	r31, 0x00	; 0
    3c24:	80 81       	ld	r24, Z
    3c26:	80 62       	ori	r24, 0x20	; 32
    3c28:	80 83       	st	Z, r24
    3c2a:	08 95       	ret

00003c2c <servo_doRCread_end>:
    3c2c:	80 91 6f 00 	lds	r24, 0x006F
    3c30:	8f 7d       	andi	r24, 0xDF	; 223
    3c32:	80 93 6f 00 	sts	0x006F, r24
    3c36:	80 91 ec 04 	lds	r24, 0x04EC
    3c3a:	88 23       	and	r24, r24
    3c3c:	a1 f0       	breq	.+40     	; 0x3c66 <servo_doRCread_end+0x3a>
    3c3e:	10 92 d3 04 	sts	0x04D3, r1
    3c42:	80 91 c3 04 	lds	r24, 0x04C3
    3c46:	90 91 c4 04 	lds	r25, 0x04C4
    3c4a:	20 91 c5 04 	lds	r18, 0x04C5
    3c4e:	30 91 c6 04 	lds	r19, 0x04C6
    3c52:	82 1b       	sub	r24, r18
    3c54:	93 0b       	sbc	r25, r19
    3c56:	90 93 ee 04 	sts	0x04EE, r25
    3c5a:	80 93 ed 04 	sts	0x04ED, r24
    3c5e:	81 e0       	ldi	r24, 0x01	; 1
    3c60:	80 93 c2 04 	sts	0x04C2, r24
    3c64:	08 95       	ret
    3c66:	80 91 d3 04 	lds	r24, 0x04D3
    3c6a:	8b 30       	cpi	r24, 0x0B	; 11
    3c6c:	28 f4       	brcc	.+10     	; 0x3c78 <servo_doRCread_end+0x4c>
    3c6e:	80 91 d3 04 	lds	r24, 0x04D3
    3c72:	8f 5f       	subi	r24, 0xFF	; 255
    3c74:	80 93 d3 04 	sts	0x04D3, r24
    3c78:	08 95       	ret

00003c7a <__vector_13>:
    3c7a:	1f 92       	push	r1
    3c7c:	0f 92       	push	r0
    3c7e:	0f b6       	in	r0, 0x3f	; 63
    3c80:	0f 92       	push	r0
    3c82:	11 24       	eor	r1, r1
    3c84:	2f 93       	push	r18
    3c86:	3f 93       	push	r19
    3c88:	4f 93       	push	r20
    3c8a:	5f 93       	push	r21
    3c8c:	6f 93       	push	r22
    3c8e:	7f 93       	push	r23
    3c90:	8f 93       	push	r24
    3c92:	9f 93       	push	r25
    3c94:	af 93       	push	r26
    3c96:	bf 93       	push	r27
    3c98:	ef 93       	push	r30
    3c9a:	ff 93       	push	r31
    3c9c:	80 91 9e 02 	lds	r24, 0x029E
    3ca0:	8a 30       	cpi	r24, 0x0A	; 10
    3ca2:	28 f0       	brcs	.+10     	; 0x3cae <__vector_13+0x34>
    3ca4:	0e 94 16 1e 	call	0x3c2c	; 0x3c2c <servo_doRCread_end>
    3ca8:	10 92 9e 02 	sts	0x029E, r1
    3cac:	1f c0       	rjmp	.+62     	; 0x3cec <__vector_13+0x72>
    3cae:	e0 91 9e 02 	lds	r30, 0x029E
    3cb2:	f0 e0       	ldi	r31, 0x00	; 0
    3cb4:	ee 0f       	add	r30, r30
    3cb6:	ff 1f       	adc	r31, r31
    3cb8:	ec 52       	subi	r30, 0x2C	; 44
    3cba:	fb 4f       	sbci	r31, 0xFB	; 251
    3cbc:	a0 81       	ld	r26, Z
    3cbe:	b1 81       	ldd	r27, Z+1	; 0x01
    3cc0:	2c 91       	ld	r18, X
    3cc2:	e0 91 9e 02 	lds	r30, 0x029E
    3cc6:	f0 e0       	ldi	r31, 0x00	; 0
    3cc8:	e9 53       	subi	r30, 0x39	; 57
    3cca:	fb 4f       	sbci	r31, 0xFB	; 251
    3ccc:	81 e0       	ldi	r24, 0x01	; 1
    3cce:	90 e0       	ldi	r25, 0x00	; 0
    3cd0:	00 80       	ld	r0, Z
    3cd2:	02 c0       	rjmp	.+4      	; 0x3cd8 <__vector_13+0x5e>
    3cd4:	88 0f       	add	r24, r24
    3cd6:	99 1f       	adc	r25, r25
    3cd8:	0a 94       	dec	r0
    3cda:	e2 f7       	brpl	.-8      	; 0x3cd4 <__vector_13+0x5a>
    3cdc:	80 95       	com	r24
    3cde:	82 23       	and	r24, r18
    3ce0:	8c 93       	st	X, r24
    3ce2:	80 91 9e 02 	lds	r24, 0x029E
    3ce6:	8f 5f       	subi	r24, 0xFF	; 255
    3ce8:	80 93 9e 02 	sts	0x029E, r24
    3cec:	80 91 9e 02 	lds	r24, 0x029E
    3cf0:	8a 30       	cpi	r24, 0x0A	; 10
    3cf2:	48 f0       	brcs	.+18     	; 0x3d06 <__vector_13+0x8c>
    3cf4:	80 e2       	ldi	r24, 0x20	; 32
    3cf6:	9e e4       	ldi	r25, 0x4E	; 78
    3cf8:	90 93 85 00 	sts	0x0085, r25
    3cfc:	80 93 84 00 	sts	0x0084, r24
    3d00:	0e 94 08 1e 	call	0x3c10	; 0x3c10 <servo_doRCread_start>
    3d04:	37 c0       	rjmp	.+110    	; 0x3d74 <__vector_13+0xfa>
    3d06:	e0 91 9e 02 	lds	r30, 0x029E
    3d0a:	f0 e0       	ldi	r31, 0x00	; 0
    3d0c:	ee 0f       	add	r30, r30
    3d0e:	ff 1f       	adc	r31, r31
    3d10:	e6 55       	subi	r30, 0x56	; 86
    3d12:	fb 4f       	sbci	r31, 0xFB	; 251
    3d14:	80 81       	ld	r24, Z
    3d16:	91 81       	ldd	r25, Z+1	; 0x01
    3d18:	01 96       	adiw	r24, 0x01	; 1
    3d1a:	31 f1       	breq	.+76     	; 0x3d68 <__vector_13+0xee>
    3d1c:	e0 91 9e 02 	lds	r30, 0x029E
    3d20:	f0 e0       	ldi	r31, 0x00	; 0
    3d22:	ee 0f       	add	r30, r30
    3d24:	ff 1f       	adc	r31, r31
    3d26:	ec 52       	subi	r30, 0x2C	; 44
    3d28:	fb 4f       	sbci	r31, 0xFB	; 251
    3d2a:	a0 81       	ld	r26, Z
    3d2c:	b1 81       	ldd	r27, Z+1	; 0x01
    3d2e:	2c 91       	ld	r18, X
    3d30:	e0 91 9e 02 	lds	r30, 0x029E
    3d34:	f0 e0       	ldi	r31, 0x00	; 0
    3d36:	e9 53       	subi	r30, 0x39	; 57
    3d38:	fb 4f       	sbci	r31, 0xFB	; 251
    3d3a:	81 e0       	ldi	r24, 0x01	; 1
    3d3c:	90 e0       	ldi	r25, 0x00	; 0
    3d3e:	00 80       	ld	r0, Z
    3d40:	02 c0       	rjmp	.+4      	; 0x3d46 <__vector_13+0xcc>
    3d42:	88 0f       	add	r24, r24
    3d44:	99 1f       	adc	r25, r25
    3d46:	0a 94       	dec	r0
    3d48:	e2 f7       	brpl	.-8      	; 0x3d42 <__vector_13+0xc8>
    3d4a:	28 2b       	or	r18, r24
    3d4c:	2c 93       	st	X, r18
    3d4e:	e0 91 9e 02 	lds	r30, 0x029E
    3d52:	f0 e0       	ldi	r31, 0x00	; 0
    3d54:	ee 0f       	add	r30, r30
    3d56:	ff 1f       	adc	r31, r31
    3d58:	e6 55       	subi	r30, 0x56	; 86
    3d5a:	fb 4f       	sbci	r31, 0xFB	; 251
    3d5c:	80 81       	ld	r24, Z
    3d5e:	91 81       	ldd	r25, Z+1	; 0x01
    3d60:	91 95       	neg	r25
    3d62:	81 95       	neg	r24
    3d64:	91 09       	sbc	r25, r1
    3d66:	02 c0       	rjmp	.+4      	; 0x3d6c <__vector_13+0xf2>
    3d68:	8c e0       	ldi	r24, 0x0C	; 12
    3d6a:	9e ef       	ldi	r25, 0xFE	; 254
    3d6c:	90 93 85 00 	sts	0x0085, r25
    3d70:	80 93 84 00 	sts	0x0084, r24
    3d74:	ff 91       	pop	r31
    3d76:	ef 91       	pop	r30
    3d78:	bf 91       	pop	r27
    3d7a:	af 91       	pop	r26
    3d7c:	9f 91       	pop	r25
    3d7e:	8f 91       	pop	r24
    3d80:	7f 91       	pop	r23
    3d82:	6f 91       	pop	r22
    3d84:	5f 91       	pop	r21
    3d86:	4f 91       	pop	r20
    3d88:	3f 91       	pop	r19
    3d8a:	2f 91       	pop	r18
    3d8c:	0f 90       	pop	r0
    3d8e:	0f be       	out	0x3f, r0	; 63
    3d90:	0f 90       	pop	r0
    3d92:	1f 90       	pop	r1
    3d94:	18 95       	reti

00003d96 <__vector_10>:
    3d96:	1f 92       	push	r1
    3d98:	0f 92       	push	r0
    3d9a:	0f b6       	in	r0, 0x3f	; 63
    3d9c:	0f 92       	push	r0
    3d9e:	11 24       	eor	r1, r1
    3da0:	8f 93       	push	r24
    3da2:	9f 93       	push	r25
    3da4:	f8 94       	cli
    3da6:	80 91 81 00 	lds	r24, 0x0081
    3daa:	86 ff       	sbrs	r24, 6
    3dac:	0f c0       	rjmp	.+30     	; 0x3dcc <__vector_10+0x36>
    3dae:	80 91 86 00 	lds	r24, 0x0086
    3db2:	90 91 87 00 	lds	r25, 0x0087
    3db6:	90 93 c6 04 	sts	0x04C6, r25
    3dba:	80 93 c5 04 	sts	0x04C5, r24
    3dbe:	80 91 81 00 	lds	r24, 0x0081
    3dc2:	8f 7b       	andi	r24, 0xBF	; 191
    3dc4:	80 93 81 00 	sts	0x0081, r24
    3dc8:	b5 9a       	sbi	0x16, 5	; 22
    3dca:	10 c0       	rjmp	.+32     	; 0x3dec <__vector_10+0x56>
    3dcc:	80 91 86 00 	lds	r24, 0x0086
    3dd0:	90 91 87 00 	lds	r25, 0x0087
    3dd4:	90 93 c4 04 	sts	0x04C4, r25
    3dd8:	80 93 c3 04 	sts	0x04C3, r24
    3ddc:	81 e0       	ldi	r24, 0x01	; 1
    3dde:	80 93 ec 04 	sts	0x04EC, r24
    3de2:	80 91 6f 00 	lds	r24, 0x006F
    3de6:	8f 7d       	andi	r24, 0xDF	; 223
    3de8:	80 93 6f 00 	sts	0x006F, r24
    3dec:	78 94       	sei
    3dee:	9f 91       	pop	r25
    3df0:	8f 91       	pop	r24
    3df2:	0f 90       	pop	r0
    3df4:	0f be       	out	0x3f, r0	; 63
    3df6:	0f 90       	pop	r0
    3df8:	1f 90       	pop	r1
    3dfa:	18 95       	reti

00003dfc <suart_init>:
    3dfc:	0f 93       	push	r16
    3dfe:	1f 93       	push	r17
    3e00:	10 92 ae 02 	sts	0x02AE, r1
    3e04:	10 92 ad 02 	sts	0x02AD, r1
    3e08:	10 92 ac 02 	sts	0x02AC, r1
    3e0c:	10 92 ab 02 	sts	0x02AB, r1
    3e10:	10 92 aa 02 	sts	0x02AA, r1
    3e14:	10 92 a9 02 	sts	0x02A9, r1
    3e18:	10 92 a8 02 	sts	0x02A8, r1
    3e1c:	10 92 a7 02 	sts	0x02A7, r1
    3e20:	38 9a       	sbi	0x07, 0	; 7
    3e22:	40 9a       	sbi	0x08, 0	; 8
    3e24:	a6 e3       	ldi	r26, 0x36	; 54
    3e26:	b8 e1       	ldi	r27, 0x18	; 24
    3e28:	40 e0       	ldi	r20, 0x00	; 0
    3e2a:	50 e0       	ldi	r21, 0x00	; 0
    3e2c:	fd 01       	movw	r30, r26
    3e2e:	05 91       	lpm	r16, Z+
    3e30:	15 91       	lpm	r17, Z+
    3e32:	25 91       	lpm	r18, Z+
    3e34:	34 91       	lpm	r19, Z
    3e36:	06 17       	cp	r16, r22
    3e38:	17 07       	cpc	r17, r23
    3e3a:	28 07       	cpc	r18, r24
    3e3c:	39 07       	cpc	r19, r25
    3e3e:	09 f0       	breq	.+2      	; 0x3e42 <suart_init+0x46>
    3e40:	39 c0       	rjmp	.+114    	; 0x3eb4 <suart_init+0xb8>
    3e42:	8c e0       	ldi	r24, 0x0C	; 12
    3e44:	84 9f       	mul	r24, r20
    3e46:	f0 01       	movw	r30, r0
    3e48:	85 9f       	mul	r24, r21
    3e4a:	f0 0d       	add	r31, r0
    3e4c:	11 24       	eor	r1, r1
    3e4e:	e6 5c       	subi	r30, 0xC6	; 198
    3e50:	f7 4e       	sbci	r31, 0xE7	; 231
    3e52:	85 91       	lpm	r24, Z+
    3e54:	94 91       	lpm	r25, Z
    3e56:	90 93 ae 02 	sts	0x02AE, r25
    3e5a:	80 93 ad 02 	sts	0x02AD, r24
    3e5e:	8c e0       	ldi	r24, 0x0C	; 12
    3e60:	84 9f       	mul	r24, r20
    3e62:	f0 01       	movw	r30, r0
    3e64:	85 9f       	mul	r24, r21
    3e66:	f0 0d       	add	r31, r0
    3e68:	11 24       	eor	r1, r1
    3e6a:	e4 5c       	subi	r30, 0xC4	; 196
    3e6c:	f7 4e       	sbci	r31, 0xE7	; 231
    3e6e:	85 91       	lpm	r24, Z+
    3e70:	94 91       	lpm	r25, Z
    3e72:	90 93 ac 02 	sts	0x02AC, r25
    3e76:	80 93 ab 02 	sts	0x02AB, r24
    3e7a:	8c e0       	ldi	r24, 0x0C	; 12
    3e7c:	84 9f       	mul	r24, r20
    3e7e:	f0 01       	movw	r30, r0
    3e80:	85 9f       	mul	r24, r21
    3e82:	f0 0d       	add	r31, r0
    3e84:	11 24       	eor	r1, r1
    3e86:	e2 5c       	subi	r30, 0xC2	; 194
    3e88:	f7 4e       	sbci	r31, 0xE7	; 231
    3e8a:	85 91       	lpm	r24, Z+
    3e8c:	94 91       	lpm	r25, Z
    3e8e:	90 93 aa 02 	sts	0x02AA, r25
    3e92:	80 93 a9 02 	sts	0x02A9, r24
    3e96:	8c e0       	ldi	r24, 0x0C	; 12
    3e98:	84 9f       	mul	r24, r20
    3e9a:	f0 01       	movw	r30, r0
    3e9c:	85 9f       	mul	r24, r21
    3e9e:	f0 0d       	add	r31, r0
    3ea0:	11 24       	eor	r1, r1
    3ea2:	e0 5c       	subi	r30, 0xC0	; 192
    3ea4:	f7 4e       	sbci	r31, 0xE7	; 231
    3ea6:	85 91       	lpm	r24, Z+
    3ea8:	94 91       	lpm	r25, Z
    3eaa:	90 93 a8 02 	sts	0x02A8, r25
    3eae:	80 93 a7 02 	sts	0x02A7, r24
    3eb2:	07 c0       	rjmp	.+14     	; 0x3ec2 <suart_init+0xc6>
    3eb4:	4f 5f       	subi	r20, 0xFF	; 255
    3eb6:	5f 4f       	sbci	r21, 0xFF	; 255
    3eb8:	1c 96       	adiw	r26, 0x0c	; 12
    3eba:	4c 30       	cpi	r20, 0x0C	; 12
    3ebc:	51 05       	cpc	r21, r1
    3ebe:	09 f0       	breq	.+2      	; 0x3ec2 <suart_init+0xc6>
    3ec0:	b5 cf       	rjmp	.-150    	; 0x3e2c <suart_init+0x30>
    3ec2:	1f 91       	pop	r17
    3ec4:	0f 91       	pop	r16
    3ec6:	08 95       	ret

00003ec8 <suart_putc>:
    3ec8:	20 91 a7 02 	lds	r18, 0x02A7
    3ecc:	30 91 a8 02 	lds	r19, 0x02A8
    3ed0:	23 2b       	or	r18, r19
    3ed2:	09 f4       	brne	.+2      	; 0x3ed6 <suart_putc+0xe>
    3ed4:	35 c0       	rjmp	.+106    	; 0x3f40 <suart_putc+0x78>
    3ed6:	5f b7       	in	r21, 0x3f	; 63
    3ed8:	f8 94       	cli
    3eda:	40 98       	cbi	0x08, 0	; 8
    3edc:	e0 91 a7 02 	lds	r30, 0x02A7
    3ee0:	f0 91 a8 02 	lds	r31, 0x02A8
    3ee4:	35 96       	adiw	r30, 0x05	; 5
    3ee6:	20 e0       	ldi	r18, 0x00	; 0
    3ee8:	31 97       	sbiw	r30, 0x01	; 1
    3eea:	2f ef       	ldi	r18, 0xFF	; 255
    3eec:	ef 3f       	cpi	r30, 0xFF	; 255
    3eee:	f2 07       	cpc	r31, r18
    3ef0:	d9 f7       	brne	.-10     	; 0x3ee8 <suart_putc+0x20>
    3ef2:	28 e0       	ldi	r18, 0x08	; 8
    3ef4:	30 e0       	ldi	r19, 0x00	; 0
    3ef6:	91 e0       	ldi	r25, 0x01	; 1
    3ef8:	60 e0       	ldi	r22, 0x00	; 0
    3efa:	49 2f       	mov	r20, r25
    3efc:	48 23       	and	r20, r24
    3efe:	11 f0       	breq	.+4      	; 0x3f04 <suart_putc+0x3c>
    3f00:	40 9a       	sbi	0x08, 0	; 8
    3f02:	01 c0       	rjmp	.+2      	; 0x3f06 <suart_putc+0x3e>
    3f04:	40 98       	cbi	0x08, 0	; 8
    3f06:	e0 91 a7 02 	lds	r30, 0x02A7
    3f0a:	f0 91 a8 02 	lds	r31, 0x02A8
    3f0e:	46 2f       	mov	r20, r22
    3f10:	31 97       	sbiw	r30, 0x01	; 1
    3f12:	4f ef       	ldi	r20, 0xFF	; 255
    3f14:	ef 3f       	cpi	r30, 0xFF	; 255
    3f16:	f4 07       	cpc	r31, r20
    3f18:	d9 f7       	brne	.-10     	; 0x3f10 <suart_putc+0x48>
    3f1a:	99 0f       	add	r25, r25
    3f1c:	21 50       	subi	r18, 0x01	; 1
    3f1e:	31 09       	sbc	r19, r1
    3f20:	21 15       	cp	r18, r1
    3f22:	31 05       	cpc	r19, r1
    3f24:	51 f7       	brne	.-44     	; 0x3efa <suart_putc+0x32>
    3f26:	40 9a       	sbi	0x08, 0	; 8
    3f28:	5f bf       	out	0x3f, r21	; 63
    3f2a:	78 94       	sei
    3f2c:	80 91 a7 02 	lds	r24, 0x02A7
    3f30:	90 91 a8 02 	lds	r25, 0x02A8
    3f34:	20 e0       	ldi	r18, 0x00	; 0
    3f36:	01 97       	sbiw	r24, 0x01	; 1
    3f38:	2f ef       	ldi	r18, 0xFF	; 255
    3f3a:	8f 3f       	cpi	r24, 0xFF	; 255
    3f3c:	92 07       	cpc	r25, r18
    3f3e:	d9 f7       	brne	.-10     	; 0x3f36 <suart_putc+0x6e>
    3f40:	08 95       	ret

00003f42 <suart_puts>:
    3f42:	1f 93       	push	r17
    3f44:	cf 93       	push	r28
    3f46:	df 93       	push	r29
    3f48:	ec 01       	movw	r28, r24
    3f4a:	10 e0       	ldi	r17, 0x00	; 0
    3f4c:	fe 01       	movw	r30, r28
    3f4e:	e1 0f       	add	r30, r17
    3f50:	f1 1d       	adc	r31, r1
    3f52:	80 81       	ld	r24, Z
    3f54:	88 23       	and	r24, r24
    3f56:	31 f0       	breq	.+12     	; 0x3f64 <suart_puts+0x22>
    3f58:	1f 3f       	cpi	r17, 0xFF	; 255
    3f5a:	21 f0       	breq	.+8      	; 0x3f64 <suart_puts+0x22>
    3f5c:	0e 94 64 1f 	call	0x3ec8	; 0x3ec8 <suart_putc>
    3f60:	1f 5f       	subi	r17, 0xFF	; 255
    3f62:	f4 cf       	rjmp	.-24     	; 0x3f4c <suart_puts+0xa>
    3f64:	df 91       	pop	r29
    3f66:	cf 91       	pop	r28
    3f68:	1f 91       	pop	r17
    3f6a:	08 95       	ret

00003f6c <suart_puts_p>:
    3f6c:	cf 93       	push	r28
    3f6e:	df 93       	push	r29
    3f70:	fc 01       	movw	r30, r24
    3f72:	84 91       	lpm	r24, Z
    3f74:	ef 01       	movw	r28, r30
    3f76:	21 96       	adiw	r28, 0x01	; 1
    3f78:	88 23       	and	r24, r24
    3f7a:	21 f0       	breq	.+8      	; 0x3f84 <suart_puts_p+0x18>
    3f7c:	0e 94 64 1f 	call	0x3ec8	; 0x3ec8 <suart_putc>
    3f80:	fe 01       	movw	r30, r28
    3f82:	f7 cf       	rjmp	.-18     	; 0x3f72 <suart_puts_p+0x6>
    3f84:	df 91       	pop	r29
    3f86:	cf 91       	pop	r28
    3f88:	08 95       	ret

00003f8a <suart2_init>:
    3f8a:	0f 93       	push	r16
    3f8c:	1f 93       	push	r17
    3f8e:	10 92 a6 02 	sts	0x02A6, r1
    3f92:	10 92 a5 02 	sts	0x02A5, r1
    3f96:	10 92 a4 02 	sts	0x02A4, r1
    3f9a:	10 92 a3 02 	sts	0x02A3, r1
    3f9e:	10 92 a2 02 	sts	0x02A2, r1
    3fa2:	10 92 a1 02 	sts	0x02A1, r1
    3fa6:	10 92 a0 02 	sts	0x02A0, r1
    3faa:	10 92 9f 02 	sts	0x029F, r1
    3fae:	39 9a       	sbi	0x07, 1	; 7
    3fb0:	41 9a       	sbi	0x08, 1	; 8
    3fb2:	a6 e3       	ldi	r26, 0x36	; 54
    3fb4:	b8 e1       	ldi	r27, 0x18	; 24
    3fb6:	40 e0       	ldi	r20, 0x00	; 0
    3fb8:	50 e0       	ldi	r21, 0x00	; 0
    3fba:	fd 01       	movw	r30, r26
    3fbc:	05 91       	lpm	r16, Z+
    3fbe:	15 91       	lpm	r17, Z+
    3fc0:	25 91       	lpm	r18, Z+
    3fc2:	34 91       	lpm	r19, Z
    3fc4:	06 17       	cp	r16, r22
    3fc6:	17 07       	cpc	r17, r23
    3fc8:	28 07       	cpc	r18, r24
    3fca:	39 07       	cpc	r19, r25
    3fcc:	09 f0       	breq	.+2      	; 0x3fd0 <suart2_init+0x46>
    3fce:	39 c0       	rjmp	.+114    	; 0x4042 <suart2_init+0xb8>
    3fd0:	8c e0       	ldi	r24, 0x0C	; 12
    3fd2:	84 9f       	mul	r24, r20
    3fd4:	f0 01       	movw	r30, r0
    3fd6:	85 9f       	mul	r24, r21
    3fd8:	f0 0d       	add	r31, r0
    3fda:	11 24       	eor	r1, r1
    3fdc:	e6 5c       	subi	r30, 0xC6	; 198
    3fde:	f7 4e       	sbci	r31, 0xE7	; 231
    3fe0:	85 91       	lpm	r24, Z+
    3fe2:	94 91       	lpm	r25, Z
    3fe4:	90 93 a6 02 	sts	0x02A6, r25
    3fe8:	80 93 a5 02 	sts	0x02A5, r24
    3fec:	8c e0       	ldi	r24, 0x0C	; 12
    3fee:	84 9f       	mul	r24, r20
    3ff0:	f0 01       	movw	r30, r0
    3ff2:	85 9f       	mul	r24, r21
    3ff4:	f0 0d       	add	r31, r0
    3ff6:	11 24       	eor	r1, r1
    3ff8:	e4 5c       	subi	r30, 0xC4	; 196
    3ffa:	f7 4e       	sbci	r31, 0xE7	; 231
    3ffc:	85 91       	lpm	r24, Z+
    3ffe:	94 91       	lpm	r25, Z
    4000:	90 93 a4 02 	sts	0x02A4, r25
    4004:	80 93 a3 02 	sts	0x02A3, r24
    4008:	8c e0       	ldi	r24, 0x0C	; 12
    400a:	84 9f       	mul	r24, r20
    400c:	f0 01       	movw	r30, r0
    400e:	85 9f       	mul	r24, r21
    4010:	f0 0d       	add	r31, r0
    4012:	11 24       	eor	r1, r1
    4014:	e2 5c       	subi	r30, 0xC2	; 194
    4016:	f7 4e       	sbci	r31, 0xE7	; 231
    4018:	85 91       	lpm	r24, Z+
    401a:	94 91       	lpm	r25, Z
    401c:	90 93 a2 02 	sts	0x02A2, r25
    4020:	80 93 a1 02 	sts	0x02A1, r24
    4024:	8c e0       	ldi	r24, 0x0C	; 12
    4026:	84 9f       	mul	r24, r20
    4028:	f0 01       	movw	r30, r0
    402a:	85 9f       	mul	r24, r21
    402c:	f0 0d       	add	r31, r0
    402e:	11 24       	eor	r1, r1
    4030:	e0 5c       	subi	r30, 0xC0	; 192
    4032:	f7 4e       	sbci	r31, 0xE7	; 231
    4034:	85 91       	lpm	r24, Z+
    4036:	94 91       	lpm	r25, Z
    4038:	90 93 a0 02 	sts	0x02A0, r25
    403c:	80 93 9f 02 	sts	0x029F, r24
    4040:	07 c0       	rjmp	.+14     	; 0x4050 <suart2_init+0xc6>
    4042:	4f 5f       	subi	r20, 0xFF	; 255
    4044:	5f 4f       	sbci	r21, 0xFF	; 255
    4046:	1c 96       	adiw	r26, 0x0c	; 12
    4048:	4c 30       	cpi	r20, 0x0C	; 12
    404a:	51 05       	cpc	r21, r1
    404c:	09 f0       	breq	.+2      	; 0x4050 <suart2_init+0xc6>
    404e:	b5 cf       	rjmp	.-150    	; 0x3fba <suart2_init+0x30>
    4050:	1f 91       	pop	r17
    4052:	0f 91       	pop	r16
    4054:	08 95       	ret

00004056 <suart2_putc>:
    4056:	20 91 9f 02 	lds	r18, 0x029F
    405a:	30 91 a0 02 	lds	r19, 0x02A0
    405e:	23 2b       	or	r18, r19
    4060:	09 f4       	brne	.+2      	; 0x4064 <suart2_putc+0xe>
    4062:	35 c0       	rjmp	.+106    	; 0x40ce <suart2_putc+0x78>
    4064:	5f b7       	in	r21, 0x3f	; 63
    4066:	f8 94       	cli
    4068:	41 98       	cbi	0x08, 1	; 8
    406a:	e0 91 9f 02 	lds	r30, 0x029F
    406e:	f0 91 a0 02 	lds	r31, 0x02A0
    4072:	35 96       	adiw	r30, 0x05	; 5
    4074:	20 e0       	ldi	r18, 0x00	; 0
    4076:	31 97       	sbiw	r30, 0x01	; 1
    4078:	2f ef       	ldi	r18, 0xFF	; 255
    407a:	ef 3f       	cpi	r30, 0xFF	; 255
    407c:	f2 07       	cpc	r31, r18
    407e:	d9 f7       	brne	.-10     	; 0x4076 <suart2_putc+0x20>
    4080:	28 e0       	ldi	r18, 0x08	; 8
    4082:	30 e0       	ldi	r19, 0x00	; 0
    4084:	91 e0       	ldi	r25, 0x01	; 1
    4086:	60 e0       	ldi	r22, 0x00	; 0
    4088:	49 2f       	mov	r20, r25
    408a:	48 23       	and	r20, r24
    408c:	11 f0       	breq	.+4      	; 0x4092 <suart2_putc+0x3c>
    408e:	41 9a       	sbi	0x08, 1	; 8
    4090:	01 c0       	rjmp	.+2      	; 0x4094 <suart2_putc+0x3e>
    4092:	41 98       	cbi	0x08, 1	; 8
    4094:	e0 91 9f 02 	lds	r30, 0x029F
    4098:	f0 91 a0 02 	lds	r31, 0x02A0
    409c:	46 2f       	mov	r20, r22
    409e:	31 97       	sbiw	r30, 0x01	; 1
    40a0:	4f ef       	ldi	r20, 0xFF	; 255
    40a2:	ef 3f       	cpi	r30, 0xFF	; 255
    40a4:	f4 07       	cpc	r31, r20
    40a6:	d9 f7       	brne	.-10     	; 0x409e <suart2_putc+0x48>
    40a8:	99 0f       	add	r25, r25
    40aa:	21 50       	subi	r18, 0x01	; 1
    40ac:	31 09       	sbc	r19, r1
    40ae:	21 15       	cp	r18, r1
    40b0:	31 05       	cpc	r19, r1
    40b2:	51 f7       	brne	.-44     	; 0x4088 <suart2_putc+0x32>
    40b4:	41 9a       	sbi	0x08, 1	; 8
    40b6:	5f bf       	out	0x3f, r21	; 63
    40b8:	78 94       	sei
    40ba:	80 91 9f 02 	lds	r24, 0x029F
    40be:	90 91 a0 02 	lds	r25, 0x02A0
    40c2:	20 e0       	ldi	r18, 0x00	; 0
    40c4:	01 97       	sbiw	r24, 0x01	; 1
    40c6:	2f ef       	ldi	r18, 0xFF	; 255
    40c8:	8f 3f       	cpi	r24, 0xFF	; 255
    40ca:	92 07       	cpc	r25, r18
    40cc:	d9 f7       	brne	.-10     	; 0x40c4 <suart2_putc+0x6e>
    40ce:	08 95       	ret

000040d0 <suart2_puts>:
    40d0:	1f 93       	push	r17
    40d2:	cf 93       	push	r28
    40d4:	df 93       	push	r29
    40d6:	ec 01       	movw	r28, r24
    40d8:	10 e0       	ldi	r17, 0x00	; 0
    40da:	fe 01       	movw	r30, r28
    40dc:	e1 0f       	add	r30, r17
    40de:	f1 1d       	adc	r31, r1
    40e0:	80 81       	ld	r24, Z
    40e2:	88 23       	and	r24, r24
    40e4:	31 f0       	breq	.+12     	; 0x40f2 <suart2_puts+0x22>
    40e6:	1f 3f       	cpi	r17, 0xFF	; 255
    40e8:	21 f0       	breq	.+8      	; 0x40f2 <suart2_puts+0x22>
    40ea:	0e 94 2b 20 	call	0x4056	; 0x4056 <suart2_putc>
    40ee:	1f 5f       	subi	r17, 0xFF	; 255
    40f0:	f4 cf       	rjmp	.-24     	; 0x40da <suart2_puts+0xa>
    40f2:	df 91       	pop	r29
    40f4:	cf 91       	pop	r28
    40f6:	1f 91       	pop	r17
    40f8:	08 95       	ret

000040fa <suart2_puts_p>:
    40fa:	cf 93       	push	r28
    40fc:	df 93       	push	r29
    40fe:	fc 01       	movw	r30, r24
    4100:	84 91       	lpm	r24, Z
    4102:	ef 01       	movw	r28, r30
    4104:	21 96       	adiw	r28, 0x01	; 1
    4106:	88 23       	and	r24, r24
    4108:	21 f0       	breq	.+8      	; 0x4112 <suart2_puts_p+0x18>
    410a:	0e 94 2b 20 	call	0x4056	; 0x4056 <suart2_putc>
    410e:	fe 01       	movw	r30, r28
    4110:	f7 cf       	rjmp	.-18     	; 0x4100 <suart2_puts_p+0x6>
    4112:	df 91       	pop	r29
    4114:	cf 91       	pop	r28
    4116:	08 95       	ret

00004118 <randomSeed>:
    4118:	61 15       	cp	r22, r1
    411a:	71 05       	cpc	r23, r1
    411c:	81 05       	cpc	r24, r1
    411e:	91 05       	cpc	r25, r1
    4120:	11 f0       	breq	.+4      	; 0x4126 <randomSeed+0xe>
    4122:	0c 94 a4 22 	jmp	0x4548	; 0x4548 <srandom>
    4126:	08 95       	ret

00004128 <random_howbig>:
    4128:	cf 93       	push	r28
    412a:	df 93       	push	r29
    412c:	00 d0       	rcall	.+0      	; 0x412e <random_howbig+0x6>
    412e:	00 d0       	rcall	.+0      	; 0x4130 <random_howbig+0x8>
    4130:	cd b7       	in	r28, 0x3d	; 61
    4132:	de b7       	in	r29, 0x3e	; 62
    4134:	9b 01       	movw	r18, r22
    4136:	ac 01       	movw	r20, r24
    4138:	61 15       	cp	r22, r1
    413a:	71 05       	cpc	r23, r1
    413c:	81 05       	cpc	r24, r1
    413e:	91 05       	cpc	r25, r1
    4140:	69 f0       	breq	.+26     	; 0x415c <random_howbig+0x34>
    4142:	69 83       	std	Y+1, r22	; 0x01
    4144:	3a 83       	std	Y+2, r19	; 0x02
    4146:	4b 83       	std	Y+3, r20	; 0x03
    4148:	5c 83       	std	Y+4, r21	; 0x04
    414a:	0e 94 9f 22 	call	0x453e	; 0x453e <random>
    414e:	29 81       	ldd	r18, Y+1	; 0x01
    4150:	3a 81       	ldd	r19, Y+2	; 0x02
    4152:	4b 81       	ldd	r20, Y+3	; 0x03
    4154:	5c 81       	ldd	r21, Y+4	; 0x04
    4156:	0e 94 9f 21 	call	0x433e	; 0x433e <__divmodsi4>
    415a:	03 c0       	rjmp	.+6      	; 0x4162 <random_howbig+0x3a>
    415c:	60 e0       	ldi	r22, 0x00	; 0
    415e:	70 e0       	ldi	r23, 0x00	; 0
    4160:	cb 01       	movw	r24, r22
    4162:	0f 90       	pop	r0
    4164:	0f 90       	pop	r0
    4166:	0f 90       	pop	r0
    4168:	0f 90       	pop	r0
    416a:	df 91       	pop	r29
    416c:	cf 91       	pop	r28
    416e:	08 95       	ret

00004170 <random_howsmall_howbig>:
    4170:	cf 92       	push	r12
    4172:	df 92       	push	r13
    4174:	ef 92       	push	r14
    4176:	ff 92       	push	r15
    4178:	6b 01       	movw	r12, r22
    417a:	7c 01       	movw	r14, r24
    417c:	62 17       	cp	r22, r18
    417e:	73 07       	cpc	r23, r19
    4180:	84 07       	cpc	r24, r20
    4182:	95 07       	cpc	r25, r21
    4184:	64 f4       	brge	.+24     	; 0x419e <random_howsmall_howbig+0x2e>
    4186:	ca 01       	movw	r24, r20
    4188:	b9 01       	movw	r22, r18
    418a:	6c 19       	sub	r22, r12
    418c:	7d 09       	sbc	r23, r13
    418e:	8e 09       	sbc	r24, r14
    4190:	9f 09       	sbc	r25, r15
    4192:	0e 94 94 20 	call	0x4128	; 0x4128 <random_howbig>
    4196:	6c 0d       	add	r22, r12
    4198:	7d 1d       	adc	r23, r13
    419a:	8e 1d       	adc	r24, r14
    419c:	9f 1d       	adc	r25, r15
    419e:	ff 90       	pop	r15
    41a0:	ef 90       	pop	r14
    41a2:	df 90       	pop	r13
    41a4:	cf 90       	pop	r12
    41a6:	08 95       	ret

000041a8 <map32>:
    41a8:	4f 92       	push	r4
    41aa:	5f 92       	push	r5
    41ac:	6f 92       	push	r6
    41ae:	7f 92       	push	r7
    41b0:	af 92       	push	r10
    41b2:	bf 92       	push	r11
    41b4:	cf 92       	push	r12
    41b6:	df 92       	push	r13
    41b8:	ef 92       	push	r14
    41ba:	ff 92       	push	r15
    41bc:	0f 93       	push	r16
    41be:	1f 93       	push	r17
    41c0:	cf 93       	push	r28
    41c2:	df 93       	push	r29
    41c4:	cd b7       	in	r28, 0x3d	; 61
    41c6:	de b7       	in	r29, 0x3e	; 62
    41c8:	29 01       	movw	r4, r18
    41ca:	3a 01       	movw	r6, r20
    41cc:	62 1b       	sub	r22, r18
    41ce:	73 0b       	sbc	r23, r19
    41d0:	84 0b       	sbc	r24, r20
    41d2:	95 0b       	sbc	r25, r21
    41d4:	29 89       	ldd	r18, Y+17	; 0x11
    41d6:	3a 89       	ldd	r19, Y+18	; 0x12
    41d8:	4b 89       	ldd	r20, Y+19	; 0x13
    41da:	5c 89       	ldd	r21, Y+20	; 0x14
    41dc:	2a 19       	sub	r18, r10
    41de:	3b 09       	sbc	r19, r11
    41e0:	4c 09       	sbc	r20, r12
    41e2:	5d 09       	sbc	r21, r13
    41e4:	29 8b       	std	Y+17, r18	; 0x11
    41e6:	3a 8b       	std	Y+18, r19	; 0x12
    41e8:	4b 8b       	std	Y+19, r20	; 0x13
    41ea:	5c 8b       	std	Y+20, r21	; 0x14
    41ec:	9b 01       	movw	r18, r22
    41ee:	ac 01       	movw	r20, r24
    41f0:	69 89       	ldd	r22, Y+17	; 0x11
    41f2:	7a 89       	ldd	r23, Y+18	; 0x12
    41f4:	8b 89       	ldd	r24, Y+19	; 0x13
    41f6:	9c 89       	ldd	r25, Y+20	; 0x14
    41f8:	0e 94 59 21 	call	0x42b2	; 0x42b2 <__mulsi3>
    41fc:	e4 18       	sub	r14, r4
    41fe:	f5 08       	sbc	r15, r5
    4200:	06 09       	sbc	r16, r6
    4202:	17 09       	sbc	r17, r7
    4204:	a8 01       	movw	r20, r16
    4206:	97 01       	movw	r18, r14
    4208:	0e 94 9f 21 	call	0x433e	; 0x433e <__divmodsi4>
    420c:	2a 0d       	add	r18, r10
    420e:	3b 1d       	adc	r19, r11
    4210:	4c 1d       	adc	r20, r12
    4212:	5d 1d       	adc	r21, r13
    4214:	ca 01       	movw	r24, r20
    4216:	b9 01       	movw	r22, r18
    4218:	df 91       	pop	r29
    421a:	cf 91       	pop	r28
    421c:	1f 91       	pop	r17
    421e:	0f 91       	pop	r16
    4220:	ff 90       	pop	r15
    4222:	ef 90       	pop	r14
    4224:	df 90       	pop	r13
    4226:	cf 90       	pop	r12
    4228:	bf 90       	pop	r11
    422a:	af 90       	pop	r10
    422c:	7f 90       	pop	r7
    422e:	6f 90       	pop	r6
    4230:	5f 90       	pop	r5
    4232:	4f 90       	pop	r4
    4234:	08 95       	ret

00004236 <randSeed>:
    4236:	00 97       	sbiw	r24, 0x00	; 0
    4238:	11 f0       	breq	.+4      	; 0x423e <randSeed+0x8>
    423a:	0c 94 45 22 	jmp	0x448a	; 0x448a <srand>
    423e:	08 95       	ret

00004240 <rand_howbig>:
    4240:	cf 93       	push	r28
    4242:	df 93       	push	r29
    4244:	ec 01       	movw	r28, r24
    4246:	00 97       	sbiw	r24, 0x00	; 0
    4248:	31 f0       	breq	.+12     	; 0x4256 <rand_howbig+0x16>
    424a:	0e 94 40 22 	call	0x4480	; 0x4480 <rand>
    424e:	be 01       	movw	r22, r28
    4250:	0e 94 69 21 	call	0x42d2	; 0x42d2 <__divmodhi4>
    4254:	02 c0       	rjmp	.+4      	; 0x425a <rand_howbig+0x1a>
    4256:	80 e0       	ldi	r24, 0x00	; 0
    4258:	90 e0       	ldi	r25, 0x00	; 0
    425a:	df 91       	pop	r29
    425c:	cf 91       	pop	r28
    425e:	08 95       	ret

00004260 <rand_howsmall_howbig>:
    4260:	cf 93       	push	r28
    4262:	df 93       	push	r29
    4264:	ec 01       	movw	r28, r24
    4266:	86 17       	cp	r24, r22
    4268:	97 07       	cpc	r25, r23
    426a:	3c f4       	brge	.+14     	; 0x427a <rand_howsmall_howbig+0x1a>
    426c:	cb 01       	movw	r24, r22
    426e:	8c 1b       	sub	r24, r28
    4270:	9d 0b       	sbc	r25, r29
    4272:	0e 94 20 21 	call	0x4240	; 0x4240 <rand_howbig>
    4276:	8c 0f       	add	r24, r28
    4278:	9d 1f       	adc	r25, r29
    427a:	df 91       	pop	r29
    427c:	cf 91       	pop	r28
    427e:	08 95       	ret

00004280 <map>:
    4280:	0f 93       	push	r16
    4282:	1f 93       	push	r17
    4284:	fc 01       	movw	r30, r24
    4286:	e6 1b       	sub	r30, r22
    4288:	f7 0b       	sbc	r31, r23
    428a:	02 1b       	sub	r16, r18
    428c:	13 0b       	sbc	r17, r19
    428e:	e0 9f       	mul	r30, r16
    4290:	c0 01       	movw	r24, r0
    4292:	e1 9f       	mul	r30, r17
    4294:	90 0d       	add	r25, r0
    4296:	f0 9f       	mul	r31, r16
    4298:	90 0d       	add	r25, r0
    429a:	11 24       	eor	r1, r1
    429c:	46 1b       	sub	r20, r22
    429e:	57 0b       	sbc	r21, r23
    42a0:	ba 01       	movw	r22, r20
    42a2:	0e 94 69 21 	call	0x42d2	; 0x42d2 <__divmodhi4>
    42a6:	cb 01       	movw	r24, r22
    42a8:	82 0f       	add	r24, r18
    42aa:	93 1f       	adc	r25, r19
    42ac:	1f 91       	pop	r17
    42ae:	0f 91       	pop	r16
    42b0:	08 95       	ret

000042b2 <__mulsi3>:
    42b2:	db 01       	movw	r26, r22
    42b4:	8f 93       	push	r24
    42b6:	9f 93       	push	r25
    42b8:	0e 94 c4 21 	call	0x4388	; 0x4388 <__muluhisi3>
    42bc:	bf 91       	pop	r27
    42be:	af 91       	pop	r26
    42c0:	a2 9f       	mul	r26, r18
    42c2:	80 0d       	add	r24, r0
    42c4:	91 1d       	adc	r25, r1
    42c6:	a3 9f       	mul	r26, r19
    42c8:	90 0d       	add	r25, r0
    42ca:	b2 9f       	mul	r27, r18
    42cc:	90 0d       	add	r25, r0
    42ce:	11 24       	eor	r1, r1
    42d0:	08 95       	ret

000042d2 <__divmodhi4>:
    42d2:	97 fb       	bst	r25, 7
    42d4:	07 2e       	mov	r0, r23
    42d6:	16 f4       	brtc	.+4      	; 0x42dc <__divmodhi4+0xa>
    42d8:	00 94       	com	r0
    42da:	07 d0       	rcall	.+14     	; 0x42ea <__divmodhi4_neg1>
    42dc:	77 fd       	sbrc	r23, 7
    42de:	09 d0       	rcall	.+18     	; 0x42f2 <__divmodhi4_neg2>
    42e0:	0e 94 cf 21 	call	0x439e	; 0x439e <__udivmodhi4>
    42e4:	07 fc       	sbrc	r0, 7
    42e6:	05 d0       	rcall	.+10     	; 0x42f2 <__divmodhi4_neg2>
    42e8:	3e f4       	brtc	.+14     	; 0x42f8 <__divmodhi4_exit>

000042ea <__divmodhi4_neg1>:
    42ea:	90 95       	com	r25
    42ec:	81 95       	neg	r24
    42ee:	9f 4f       	sbci	r25, 0xFF	; 255
    42f0:	08 95       	ret

000042f2 <__divmodhi4_neg2>:
    42f2:	70 95       	com	r23
    42f4:	61 95       	neg	r22
    42f6:	7f 4f       	sbci	r23, 0xFF	; 255

000042f8 <__divmodhi4_exit>:
    42f8:	08 95       	ret

000042fa <__udivmodsi4>:
    42fa:	a1 e2       	ldi	r26, 0x21	; 33
    42fc:	1a 2e       	mov	r1, r26
    42fe:	aa 1b       	sub	r26, r26
    4300:	bb 1b       	sub	r27, r27
    4302:	fd 01       	movw	r30, r26
    4304:	0d c0       	rjmp	.+26     	; 0x4320 <__udivmodsi4_ep>

00004306 <__udivmodsi4_loop>:
    4306:	aa 1f       	adc	r26, r26
    4308:	bb 1f       	adc	r27, r27
    430a:	ee 1f       	adc	r30, r30
    430c:	ff 1f       	adc	r31, r31
    430e:	a2 17       	cp	r26, r18
    4310:	b3 07       	cpc	r27, r19
    4312:	e4 07       	cpc	r30, r20
    4314:	f5 07       	cpc	r31, r21
    4316:	20 f0       	brcs	.+8      	; 0x4320 <__udivmodsi4_ep>
    4318:	a2 1b       	sub	r26, r18
    431a:	b3 0b       	sbc	r27, r19
    431c:	e4 0b       	sbc	r30, r20
    431e:	f5 0b       	sbc	r31, r21

00004320 <__udivmodsi4_ep>:
    4320:	66 1f       	adc	r22, r22
    4322:	77 1f       	adc	r23, r23
    4324:	88 1f       	adc	r24, r24
    4326:	99 1f       	adc	r25, r25
    4328:	1a 94       	dec	r1
    432a:	69 f7       	brne	.-38     	; 0x4306 <__udivmodsi4_loop>
    432c:	60 95       	com	r22
    432e:	70 95       	com	r23
    4330:	80 95       	com	r24
    4332:	90 95       	com	r25
    4334:	9b 01       	movw	r18, r22
    4336:	ac 01       	movw	r20, r24
    4338:	bd 01       	movw	r22, r26
    433a:	cf 01       	movw	r24, r30
    433c:	08 95       	ret

0000433e <__divmodsi4>:
    433e:	05 2e       	mov	r0, r21
    4340:	97 fb       	bst	r25, 7
    4342:	1e f4       	brtc	.+6      	; 0x434a <__divmodsi4+0xc>
    4344:	00 94       	com	r0
    4346:	0e 94 b6 21 	call	0x436c	; 0x436c <__negsi2>
    434a:	57 fd       	sbrc	r21, 7
    434c:	07 d0       	rcall	.+14     	; 0x435c <__divmodsi4_neg2>
    434e:	0e 94 7d 21 	call	0x42fa	; 0x42fa <__udivmodsi4>
    4352:	07 fc       	sbrc	r0, 7
    4354:	03 d0       	rcall	.+6      	; 0x435c <__divmodsi4_neg2>
    4356:	4e f4       	brtc	.+18     	; 0x436a <__divmodsi4_exit>
    4358:	0c 94 b6 21 	jmp	0x436c	; 0x436c <__negsi2>

0000435c <__divmodsi4_neg2>:
    435c:	50 95       	com	r21
    435e:	40 95       	com	r20
    4360:	30 95       	com	r19
    4362:	21 95       	neg	r18
    4364:	3f 4f       	sbci	r19, 0xFF	; 255
    4366:	4f 4f       	sbci	r20, 0xFF	; 255
    4368:	5f 4f       	sbci	r21, 0xFF	; 255

0000436a <__divmodsi4_exit>:
    436a:	08 95       	ret

0000436c <__negsi2>:
    436c:	90 95       	com	r25
    436e:	80 95       	com	r24
    4370:	70 95       	com	r23
    4372:	61 95       	neg	r22
    4374:	7f 4f       	sbci	r23, 0xFF	; 255
    4376:	8f 4f       	sbci	r24, 0xFF	; 255
    4378:	9f 4f       	sbci	r25, 0xFF	; 255
    437a:	08 95       	ret

0000437c <__tablejump2__>:
    437c:	ee 0f       	add	r30, r30
    437e:	ff 1f       	adc	r31, r31

00004380 <__tablejump__>:
    4380:	05 90       	lpm	r0, Z+
    4382:	f4 91       	lpm	r31, Z
    4384:	e0 2d       	mov	r30, r0
    4386:	09 94       	ijmp

00004388 <__muluhisi3>:
    4388:	0e 94 e3 21 	call	0x43c6	; 0x43c6 <__umulhisi3>
    438c:	a5 9f       	mul	r26, r21
    438e:	90 0d       	add	r25, r0
    4390:	b4 9f       	mul	r27, r20
    4392:	90 0d       	add	r25, r0
    4394:	a4 9f       	mul	r26, r20
    4396:	80 0d       	add	r24, r0
    4398:	91 1d       	adc	r25, r1
    439a:	11 24       	eor	r1, r1
    439c:	08 95       	ret

0000439e <__udivmodhi4>:
    439e:	aa 1b       	sub	r26, r26
    43a0:	bb 1b       	sub	r27, r27
    43a2:	51 e1       	ldi	r21, 0x11	; 17
    43a4:	07 c0       	rjmp	.+14     	; 0x43b4 <__udivmodhi4_ep>

000043a6 <__udivmodhi4_loop>:
    43a6:	aa 1f       	adc	r26, r26
    43a8:	bb 1f       	adc	r27, r27
    43aa:	a6 17       	cp	r26, r22
    43ac:	b7 07       	cpc	r27, r23
    43ae:	10 f0       	brcs	.+4      	; 0x43b4 <__udivmodhi4_ep>
    43b0:	a6 1b       	sub	r26, r22
    43b2:	b7 0b       	sbc	r27, r23

000043b4 <__udivmodhi4_ep>:
    43b4:	88 1f       	adc	r24, r24
    43b6:	99 1f       	adc	r25, r25
    43b8:	5a 95       	dec	r21
    43ba:	a9 f7       	brne	.-22     	; 0x43a6 <__udivmodhi4_loop>
    43bc:	80 95       	com	r24
    43be:	90 95       	com	r25
    43c0:	bc 01       	movw	r22, r24
    43c2:	cd 01       	movw	r24, r26
    43c4:	08 95       	ret

000043c6 <__umulhisi3>:
    43c6:	a2 9f       	mul	r26, r18
    43c8:	b0 01       	movw	r22, r0
    43ca:	b3 9f       	mul	r27, r19
    43cc:	c0 01       	movw	r24, r0
    43ce:	a3 9f       	mul	r26, r19
    43d0:	70 0d       	add	r23, r0
    43d2:	81 1d       	adc	r24, r1
    43d4:	11 24       	eor	r1, r1
    43d6:	91 1d       	adc	r25, r1
    43d8:	b2 9f       	mul	r27, r18
    43da:	70 0d       	add	r23, r0
    43dc:	81 1d       	adc	r24, r1
    43de:	11 24       	eor	r1, r1
    43e0:	91 1d       	adc	r25, r1
    43e2:	08 95       	ret

000043e4 <do_rand>:
    43e4:	8f 92       	push	r8
    43e6:	9f 92       	push	r9
    43e8:	af 92       	push	r10
    43ea:	bf 92       	push	r11
    43ec:	cf 92       	push	r12
    43ee:	df 92       	push	r13
    43f0:	ef 92       	push	r14
    43f2:	ff 92       	push	r15
    43f4:	cf 93       	push	r28
    43f6:	df 93       	push	r29
    43f8:	ec 01       	movw	r28, r24
    43fa:	68 81       	ld	r22, Y
    43fc:	79 81       	ldd	r23, Y+1	; 0x01
    43fe:	8a 81       	ldd	r24, Y+2	; 0x02
    4400:	9b 81       	ldd	r25, Y+3	; 0x03
    4402:	61 15       	cp	r22, r1
    4404:	71 05       	cpc	r23, r1
    4406:	81 05       	cpc	r24, r1
    4408:	91 05       	cpc	r25, r1
    440a:	21 f4       	brne	.+8      	; 0x4414 <do_rand+0x30>
    440c:	64 e2       	ldi	r22, 0x24	; 36
    440e:	79 ed       	ldi	r23, 0xD9	; 217
    4410:	8b e5       	ldi	r24, 0x5B	; 91
    4412:	97 e0       	ldi	r25, 0x07	; 7
    4414:	2d e1       	ldi	r18, 0x1D	; 29
    4416:	33 ef       	ldi	r19, 0xF3	; 243
    4418:	41 e0       	ldi	r20, 0x01	; 1
    441a:	50 e0       	ldi	r21, 0x00	; 0
    441c:	0e 94 9f 21 	call	0x433e	; 0x433e <__divmodsi4>
    4420:	49 01       	movw	r8, r18
    4422:	5a 01       	movw	r10, r20
    4424:	9b 01       	movw	r18, r22
    4426:	ac 01       	movw	r20, r24
    4428:	a7 ea       	ldi	r26, 0xA7	; 167
    442a:	b1 e4       	ldi	r27, 0x41	; 65
    442c:	0e 94 c4 21 	call	0x4388	; 0x4388 <__muluhisi3>
    4430:	6b 01       	movw	r12, r22
    4432:	7c 01       	movw	r14, r24
    4434:	ac ee       	ldi	r26, 0xEC	; 236
    4436:	b4 ef       	ldi	r27, 0xF4	; 244
    4438:	a5 01       	movw	r20, r10
    443a:	94 01       	movw	r18, r8
    443c:	0e 94 e7 28 	call	0x51ce	; 0x51ce <__mulohisi3>
    4440:	c6 0e       	add	r12, r22
    4442:	d7 1e       	adc	r13, r23
    4444:	e8 1e       	adc	r14, r24
    4446:	f9 1e       	adc	r15, r25
    4448:	f7 fe       	sbrs	r15, 7
    444a:	06 c0       	rjmp	.+12     	; 0x4458 <do_rand+0x74>
    444c:	81 e0       	ldi	r24, 0x01	; 1
    444e:	c8 1a       	sub	r12, r24
    4450:	d1 08       	sbc	r13, r1
    4452:	e1 08       	sbc	r14, r1
    4454:	80 e8       	ldi	r24, 0x80	; 128
    4456:	f8 0a       	sbc	r15, r24
    4458:	c8 82       	st	Y, r12
    445a:	d9 82       	std	Y+1, r13	; 0x01
    445c:	ea 82       	std	Y+2, r14	; 0x02
    445e:	fb 82       	std	Y+3, r15	; 0x03
    4460:	c6 01       	movw	r24, r12
    4462:	9f 77       	andi	r25, 0x7F	; 127
    4464:	df 91       	pop	r29
    4466:	cf 91       	pop	r28
    4468:	ff 90       	pop	r15
    446a:	ef 90       	pop	r14
    446c:	df 90       	pop	r13
    446e:	cf 90       	pop	r12
    4470:	bf 90       	pop	r11
    4472:	af 90       	pop	r10
    4474:	9f 90       	pop	r9
    4476:	8f 90       	pop	r8
    4478:	08 95       	ret

0000447a <rand_r>:
    447a:	0e 94 f2 21 	call	0x43e4	; 0x43e4 <do_rand>
    447e:	08 95       	ret

00004480 <rand>:
    4480:	80 e0       	ldi	r24, 0x00	; 0
    4482:	91 e0       	ldi	r25, 0x01	; 1
    4484:	0e 94 f2 21 	call	0x43e4	; 0x43e4 <do_rand>
    4488:	08 95       	ret

0000448a <srand>:
    448a:	a0 e0       	ldi	r26, 0x00	; 0
    448c:	b0 e0       	ldi	r27, 0x00	; 0
    448e:	80 93 00 01 	sts	0x0100, r24
    4492:	90 93 01 01 	sts	0x0101, r25
    4496:	a0 93 02 01 	sts	0x0102, r26
    449a:	b0 93 03 01 	sts	0x0103, r27
    449e:	08 95       	ret

000044a0 <do_random>:
    44a0:	8f 92       	push	r8
    44a2:	9f 92       	push	r9
    44a4:	af 92       	push	r10
    44a6:	bf 92       	push	r11
    44a8:	cf 92       	push	r12
    44aa:	df 92       	push	r13
    44ac:	ef 92       	push	r14
    44ae:	ff 92       	push	r15
    44b0:	cf 93       	push	r28
    44b2:	df 93       	push	r29
    44b4:	ec 01       	movw	r28, r24
    44b6:	68 81       	ld	r22, Y
    44b8:	79 81       	ldd	r23, Y+1	; 0x01
    44ba:	8a 81       	ldd	r24, Y+2	; 0x02
    44bc:	9b 81       	ldd	r25, Y+3	; 0x03
    44be:	61 15       	cp	r22, r1
    44c0:	71 05       	cpc	r23, r1
    44c2:	81 05       	cpc	r24, r1
    44c4:	91 05       	cpc	r25, r1
    44c6:	21 f4       	brne	.+8      	; 0x44d0 <do_random+0x30>
    44c8:	64 e2       	ldi	r22, 0x24	; 36
    44ca:	79 ed       	ldi	r23, 0xD9	; 217
    44cc:	8b e5       	ldi	r24, 0x5B	; 91
    44ce:	97 e0       	ldi	r25, 0x07	; 7
    44d0:	2d e1       	ldi	r18, 0x1D	; 29
    44d2:	33 ef       	ldi	r19, 0xF3	; 243
    44d4:	41 e0       	ldi	r20, 0x01	; 1
    44d6:	50 e0       	ldi	r21, 0x00	; 0
    44d8:	0e 94 9f 21 	call	0x433e	; 0x433e <__divmodsi4>
    44dc:	49 01       	movw	r8, r18
    44de:	5a 01       	movw	r10, r20
    44e0:	9b 01       	movw	r18, r22
    44e2:	ac 01       	movw	r20, r24
    44e4:	a7 ea       	ldi	r26, 0xA7	; 167
    44e6:	b1 e4       	ldi	r27, 0x41	; 65
    44e8:	0e 94 c4 21 	call	0x4388	; 0x4388 <__muluhisi3>
    44ec:	6b 01       	movw	r12, r22
    44ee:	7c 01       	movw	r14, r24
    44f0:	ac ee       	ldi	r26, 0xEC	; 236
    44f2:	b4 ef       	ldi	r27, 0xF4	; 244
    44f4:	a5 01       	movw	r20, r10
    44f6:	94 01       	movw	r18, r8
    44f8:	0e 94 e7 28 	call	0x51ce	; 0x51ce <__mulohisi3>
    44fc:	c6 0e       	add	r12, r22
    44fe:	d7 1e       	adc	r13, r23
    4500:	e8 1e       	adc	r14, r24
    4502:	f9 1e       	adc	r15, r25
    4504:	f7 fe       	sbrs	r15, 7
    4506:	06 c0       	rjmp	.+12     	; 0x4514 <do_random+0x74>
    4508:	81 e0       	ldi	r24, 0x01	; 1
    450a:	c8 1a       	sub	r12, r24
    450c:	d1 08       	sbc	r13, r1
    450e:	e1 08       	sbc	r14, r1
    4510:	80 e8       	ldi	r24, 0x80	; 128
    4512:	f8 0a       	sbc	r15, r24
    4514:	c8 82       	st	Y, r12
    4516:	d9 82       	std	Y+1, r13	; 0x01
    4518:	ea 82       	std	Y+2, r14	; 0x02
    451a:	fb 82       	std	Y+3, r15	; 0x03
    451c:	c7 01       	movw	r24, r14
    451e:	b6 01       	movw	r22, r12
    4520:	9f 77       	andi	r25, 0x7F	; 127
    4522:	df 91       	pop	r29
    4524:	cf 91       	pop	r28
    4526:	ff 90       	pop	r15
    4528:	ef 90       	pop	r14
    452a:	df 90       	pop	r13
    452c:	cf 90       	pop	r12
    452e:	bf 90       	pop	r11
    4530:	af 90       	pop	r10
    4532:	9f 90       	pop	r9
    4534:	8f 90       	pop	r8
    4536:	08 95       	ret

00004538 <random_r>:
    4538:	0e 94 50 22 	call	0x44a0	; 0x44a0 <do_random>
    453c:	08 95       	ret

0000453e <random>:
    453e:	84 e0       	ldi	r24, 0x04	; 4
    4540:	91 e0       	ldi	r25, 0x01	; 1
    4542:	0e 94 50 22 	call	0x44a0	; 0x44a0 <do_random>
    4546:	08 95       	ret

00004548 <srandom>:
    4548:	60 93 04 01 	sts	0x0104, r22
    454c:	70 93 05 01 	sts	0x0105, r23
    4550:	80 93 06 01 	sts	0x0106, r24
    4554:	90 93 07 01 	sts	0x0107, r25
    4558:	08 95       	ret

0000455a <atoi>:
    455a:	fc 01       	movw	r30, r24
    455c:	88 27       	eor	r24, r24
    455e:	99 27       	eor	r25, r25
    4560:	e8 94       	clt
    4562:	21 91       	ld	r18, Z+
    4564:	20 32       	cpi	r18, 0x20	; 32
    4566:	e9 f3       	breq	.-6      	; 0x4562 <atoi+0x8>
    4568:	29 30       	cpi	r18, 0x09	; 9
    456a:	10 f0       	brcs	.+4      	; 0x4570 <atoi+0x16>
    456c:	2e 30       	cpi	r18, 0x0E	; 14
    456e:	c8 f3       	brcs	.-14     	; 0x4562 <atoi+0x8>
    4570:	2b 32       	cpi	r18, 0x2B	; 43
    4572:	41 f0       	breq	.+16     	; 0x4584 <atoi+0x2a>
    4574:	2d 32       	cpi	r18, 0x2D	; 45
    4576:	39 f4       	brne	.+14     	; 0x4586 <atoi+0x2c>
    4578:	68 94       	set
    457a:	04 c0       	rjmp	.+8      	; 0x4584 <atoi+0x2a>
    457c:	0e 94 07 23 	call	0x460e	; 0x460e <__mulhi_const_10>
    4580:	82 0f       	add	r24, r18
    4582:	91 1d       	adc	r25, r1
    4584:	21 91       	ld	r18, Z+
    4586:	20 53       	subi	r18, 0x30	; 48
    4588:	2a 30       	cpi	r18, 0x0A	; 10
    458a:	c0 f3       	brcs	.-16     	; 0x457c <atoi+0x22>
    458c:	1e f4       	brtc	.+6      	; 0x4594 <atoi+0x3a>
    458e:	90 95       	com	r25
    4590:	81 95       	neg	r24
    4592:	9f 4f       	sbci	r25, 0xFF	; 255
    4594:	08 95       	ret

00004596 <strtok>:
    4596:	4e e5       	ldi	r20, 0x5E	; 94
    4598:	52 e0       	ldi	r21, 0x02	; 2
    459a:	0e 94 e0 22 	call	0x45c0	; 0x45c0 <strtok_r>
    459e:	08 95       	ret

000045a0 <strcmp>:
    45a0:	fb 01       	movw	r30, r22
    45a2:	dc 01       	movw	r26, r24
    45a4:	8d 91       	ld	r24, X+
    45a6:	01 90       	ld	r0, Z+
    45a8:	80 19       	sub	r24, r0
    45aa:	01 10       	cpse	r0, r1
    45ac:	d9 f3       	breq	.-10     	; 0x45a4 <strcmp+0x4>
    45ae:	99 0b       	sbc	r25, r25
    45b0:	08 95       	ret

000045b2 <strcpy>:
    45b2:	fb 01       	movw	r30, r22
    45b4:	dc 01       	movw	r26, r24
    45b6:	01 90       	ld	r0, Z+
    45b8:	0d 92       	st	X+, r0
    45ba:	00 20       	and	r0, r0
    45bc:	e1 f7       	brne	.-8      	; 0x45b6 <strcpy+0x4>
    45be:	08 95       	ret

000045c0 <strtok_r>:
    45c0:	fa 01       	movw	r30, r20
    45c2:	a1 91       	ld	r26, Z+
    45c4:	b0 81       	ld	r27, Z
    45c6:	00 97       	sbiw	r24, 0x00	; 0
    45c8:	19 f4       	brne	.+6      	; 0x45d0 <strtok_r+0x10>
    45ca:	10 97       	sbiw	r26, 0x00	; 0
    45cc:	e1 f0       	breq	.+56     	; 0x4606 <strtok_r+0x46>
    45ce:	cd 01       	movw	r24, r26
    45d0:	dc 01       	movw	r26, r24
    45d2:	cd 01       	movw	r24, r26
    45d4:	0d 90       	ld	r0, X+
    45d6:	00 20       	and	r0, r0
    45d8:	11 f4       	brne	.+4      	; 0x45de <strtok_r+0x1e>
    45da:	c0 01       	movw	r24, r0
    45dc:	13 c0       	rjmp	.+38     	; 0x4604 <strtok_r+0x44>
    45de:	fb 01       	movw	r30, r22
    45e0:	21 91       	ld	r18, Z+
    45e2:	22 23       	and	r18, r18
    45e4:	19 f0       	breq	.+6      	; 0x45ec <strtok_r+0x2c>
    45e6:	20 15       	cp	r18, r0
    45e8:	d9 f7       	brne	.-10     	; 0x45e0 <strtok_r+0x20>
    45ea:	f3 cf       	rjmp	.-26     	; 0x45d2 <strtok_r+0x12>
    45ec:	fb 01       	movw	r30, r22
    45ee:	21 91       	ld	r18, Z+
    45f0:	20 15       	cp	r18, r0
    45f2:	19 f4       	brne	.+6      	; 0x45fa <strtok_r+0x3a>
    45f4:	1e 92       	st	-X, r1
    45f6:	11 96       	adiw	r26, 0x01	; 1
    45f8:	06 c0       	rjmp	.+12     	; 0x4606 <strtok_r+0x46>
    45fa:	22 23       	and	r18, r18
    45fc:	c1 f7       	brne	.-16     	; 0x45ee <strtok_r+0x2e>
    45fe:	0d 90       	ld	r0, X+
    4600:	00 20       	and	r0, r0
    4602:	a1 f7       	brne	.-24     	; 0x45ec <strtok_r+0x2c>
    4604:	d0 01       	movw	r26, r0
    4606:	fa 01       	movw	r30, r20
    4608:	a1 93       	st	Z+, r26
    460a:	b0 83       	st	Z, r27
    460c:	08 95       	ret

0000460e <__mulhi_const_10>:
    460e:	7a e0       	ldi	r23, 0x0A	; 10
    4610:	97 9f       	mul	r25, r23
    4612:	90 2d       	mov	r25, r0
    4614:	87 9f       	mul	r24, r23
    4616:	80 2d       	mov	r24, r0
    4618:	91 0d       	add	r25, r1
    461a:	11 24       	eor	r1, r1
    461c:	08 95       	ret

0000461e <sprintf>:
    461e:	ae e0       	ldi	r26, 0x0E	; 14
    4620:	b0 e0       	ldi	r27, 0x00	; 0
    4622:	e5 e1       	ldi	r30, 0x15	; 21
    4624:	f3 e2       	ldi	r31, 0x23	; 35
    4626:	0c 94 fa 28 	jmp	0x51f4	; 0x51f4 <__prologue_saves__+0x1c>
    462a:	0d 89       	ldd	r16, Y+21	; 0x15
    462c:	1e 89       	ldd	r17, Y+22	; 0x16
    462e:	86 e0       	ldi	r24, 0x06	; 6
    4630:	8c 83       	std	Y+4, r24	; 0x04
    4632:	1a 83       	std	Y+2, r17	; 0x02
    4634:	09 83       	std	Y+1, r16	; 0x01
    4636:	8f ef       	ldi	r24, 0xFF	; 255
    4638:	9f e7       	ldi	r25, 0x7F	; 127
    463a:	9e 83       	std	Y+6, r25	; 0x06
    463c:	8d 83       	std	Y+5, r24	; 0x05
    463e:	ae 01       	movw	r20, r28
    4640:	47 5e       	subi	r20, 0xE7	; 231
    4642:	5f 4f       	sbci	r21, 0xFF	; 255
    4644:	6f 89       	ldd	r22, Y+23	; 0x17
    4646:	78 8d       	ldd	r23, Y+24	; 0x18
    4648:	ce 01       	movw	r24, r28
    464a:	01 96       	adiw	r24, 0x01	; 1
    464c:	0e 94 4a 23 	call	0x4694	; 0x4694 <vfprintf>
    4650:	ef 81       	ldd	r30, Y+7	; 0x07
    4652:	f8 85       	ldd	r31, Y+8	; 0x08
    4654:	e0 0f       	add	r30, r16
    4656:	f1 1f       	adc	r31, r17
    4658:	10 82       	st	Z, r1
    465a:	2e 96       	adiw	r28, 0x0e	; 14
    465c:	e4 e0       	ldi	r30, 0x04	; 4
    465e:	0c 94 16 29 	jmp	0x522c	; 0x522c <__epilogue_restores__+0x1c>

00004662 <sscanf>:
    4662:	ae e0       	ldi	r26, 0x0E	; 14
    4664:	b0 e0       	ldi	r27, 0x00	; 0
    4666:	e7 e3       	ldi	r30, 0x37	; 55
    4668:	f3 e2       	ldi	r31, 0x23	; 35
    466a:	0c 94 fc 28 	jmp	0x51f8	; 0x51f8 <__prologue_saves__+0x20>
    466e:	85 e0       	ldi	r24, 0x05	; 5
    4670:	8c 83       	std	Y+4, r24	; 0x04
    4672:	8b 89       	ldd	r24, Y+19	; 0x13
    4674:	9c 89       	ldd	r25, Y+20	; 0x14
    4676:	9a 83       	std	Y+2, r25	; 0x02
    4678:	89 83       	std	Y+1, r24	; 0x01
    467a:	ae 01       	movw	r20, r28
    467c:	49 5e       	subi	r20, 0xE9	; 233
    467e:	5f 4f       	sbci	r21, 0xFF	; 255
    4680:	6d 89       	ldd	r22, Y+21	; 0x15
    4682:	7e 89       	ldd	r23, Y+22	; 0x16
    4684:	ce 01       	movw	r24, r28
    4686:	01 96       	adiw	r24, 0x01	; 1
    4688:	0e 94 9a 26 	call	0x4d34	; 0x4d34 <vfscanf>
    468c:	2e 96       	adiw	r28, 0x0e	; 14
    468e:	e2 e0       	ldi	r30, 0x02	; 2
    4690:	0c 94 18 29 	jmp	0x5230	; 0x5230 <__epilogue_restores__+0x20>

00004694 <vfprintf>:
    4694:	ac e0       	ldi	r26, 0x0C	; 12
    4696:	b0 e0       	ldi	r27, 0x00	; 0
    4698:	e0 e5       	ldi	r30, 0x50	; 80
    469a:	f3 e2       	ldi	r31, 0x23	; 35
    469c:	0c 94 ec 28 	jmp	0x51d8	; 0x51d8 <__prologue_saves__>
    46a0:	7c 01       	movw	r14, r24
    46a2:	6b 01       	movw	r12, r22
    46a4:	8a 01       	movw	r16, r20
    46a6:	fc 01       	movw	r30, r24
    46a8:	17 82       	std	Z+7, r1	; 0x07
    46aa:	16 82       	std	Z+6, r1	; 0x06
    46ac:	83 81       	ldd	r24, Z+3	; 0x03
    46ae:	81 ff       	sbrs	r24, 1
    46b0:	bd c1       	rjmp	.+890    	; 0x4a2c <vfprintf+0x398>
    46b2:	ce 01       	movw	r24, r28
    46b4:	01 96       	adiw	r24, 0x01	; 1
    46b6:	4c 01       	movw	r8, r24
    46b8:	f7 01       	movw	r30, r14
    46ba:	93 81       	ldd	r25, Z+3	; 0x03
    46bc:	f6 01       	movw	r30, r12
    46be:	93 fd       	sbrc	r25, 3
    46c0:	85 91       	lpm	r24, Z+
    46c2:	93 ff       	sbrs	r25, 3
    46c4:	81 91       	ld	r24, Z+
    46c6:	6f 01       	movw	r12, r30
    46c8:	88 23       	and	r24, r24
    46ca:	09 f4       	brne	.+2      	; 0x46ce <vfprintf+0x3a>
    46cc:	ab c1       	rjmp	.+854    	; 0x4a24 <vfprintf+0x390>
    46ce:	85 32       	cpi	r24, 0x25	; 37
    46d0:	39 f4       	brne	.+14     	; 0x46e0 <vfprintf+0x4c>
    46d2:	93 fd       	sbrc	r25, 3
    46d4:	85 91       	lpm	r24, Z+
    46d6:	93 ff       	sbrs	r25, 3
    46d8:	81 91       	ld	r24, Z+
    46da:	6f 01       	movw	r12, r30
    46dc:	85 32       	cpi	r24, 0x25	; 37
    46de:	29 f4       	brne	.+10     	; 0x46ea <vfprintf+0x56>
    46e0:	b7 01       	movw	r22, r14
    46e2:	90 e0       	ldi	r25, 0x00	; 0
    46e4:	0e 94 38 28 	call	0x5070	; 0x5070 <fputc>
    46e8:	e7 cf       	rjmp	.-50     	; 0x46b8 <vfprintf+0x24>
    46ea:	51 2c       	mov	r5, r1
    46ec:	31 2c       	mov	r3, r1
    46ee:	20 e0       	ldi	r18, 0x00	; 0
    46f0:	20 32       	cpi	r18, 0x20	; 32
    46f2:	a0 f4       	brcc	.+40     	; 0x471c <vfprintf+0x88>
    46f4:	8b 32       	cpi	r24, 0x2B	; 43
    46f6:	69 f0       	breq	.+26     	; 0x4712 <vfprintf+0x7e>
    46f8:	30 f4       	brcc	.+12     	; 0x4706 <vfprintf+0x72>
    46fa:	80 32       	cpi	r24, 0x20	; 32
    46fc:	59 f0       	breq	.+22     	; 0x4714 <vfprintf+0x80>
    46fe:	83 32       	cpi	r24, 0x23	; 35
    4700:	69 f4       	brne	.+26     	; 0x471c <vfprintf+0x88>
    4702:	20 61       	ori	r18, 0x10	; 16
    4704:	2c c0       	rjmp	.+88     	; 0x475e <vfprintf+0xca>
    4706:	8d 32       	cpi	r24, 0x2D	; 45
    4708:	39 f0       	breq	.+14     	; 0x4718 <vfprintf+0x84>
    470a:	80 33       	cpi	r24, 0x30	; 48
    470c:	39 f4       	brne	.+14     	; 0x471c <vfprintf+0x88>
    470e:	21 60       	ori	r18, 0x01	; 1
    4710:	26 c0       	rjmp	.+76     	; 0x475e <vfprintf+0xca>
    4712:	22 60       	ori	r18, 0x02	; 2
    4714:	24 60       	ori	r18, 0x04	; 4
    4716:	23 c0       	rjmp	.+70     	; 0x475e <vfprintf+0xca>
    4718:	28 60       	ori	r18, 0x08	; 8
    471a:	21 c0       	rjmp	.+66     	; 0x475e <vfprintf+0xca>
    471c:	27 fd       	sbrc	r18, 7
    471e:	27 c0       	rjmp	.+78     	; 0x476e <vfprintf+0xda>
    4720:	30 ed       	ldi	r19, 0xD0	; 208
    4722:	38 0f       	add	r19, r24
    4724:	3a 30       	cpi	r19, 0x0A	; 10
    4726:	78 f4       	brcc	.+30     	; 0x4746 <vfprintf+0xb2>
    4728:	26 ff       	sbrs	r18, 6
    472a:	06 c0       	rjmp	.+12     	; 0x4738 <vfprintf+0xa4>
    472c:	fa e0       	ldi	r31, 0x0A	; 10
    472e:	5f 9e       	mul	r5, r31
    4730:	30 0d       	add	r19, r0
    4732:	11 24       	eor	r1, r1
    4734:	53 2e       	mov	r5, r19
    4736:	13 c0       	rjmp	.+38     	; 0x475e <vfprintf+0xca>
    4738:	8a e0       	ldi	r24, 0x0A	; 10
    473a:	38 9e       	mul	r3, r24
    473c:	30 0d       	add	r19, r0
    473e:	11 24       	eor	r1, r1
    4740:	33 2e       	mov	r3, r19
    4742:	20 62       	ori	r18, 0x20	; 32
    4744:	0c c0       	rjmp	.+24     	; 0x475e <vfprintf+0xca>
    4746:	8e 32       	cpi	r24, 0x2E	; 46
    4748:	21 f4       	brne	.+8      	; 0x4752 <vfprintf+0xbe>
    474a:	26 fd       	sbrc	r18, 6
    474c:	6b c1       	rjmp	.+726    	; 0x4a24 <vfprintf+0x390>
    474e:	20 64       	ori	r18, 0x40	; 64
    4750:	06 c0       	rjmp	.+12     	; 0x475e <vfprintf+0xca>
    4752:	8c 36       	cpi	r24, 0x6C	; 108
    4754:	11 f4       	brne	.+4      	; 0x475a <vfprintf+0xc6>
    4756:	20 68       	ori	r18, 0x80	; 128
    4758:	02 c0       	rjmp	.+4      	; 0x475e <vfprintf+0xca>
    475a:	88 36       	cpi	r24, 0x68	; 104
    475c:	41 f4       	brne	.+16     	; 0x476e <vfprintf+0xda>
    475e:	f6 01       	movw	r30, r12
    4760:	93 fd       	sbrc	r25, 3
    4762:	85 91       	lpm	r24, Z+
    4764:	93 ff       	sbrs	r25, 3
    4766:	81 91       	ld	r24, Z+
    4768:	6f 01       	movw	r12, r30
    476a:	81 11       	cpse	r24, r1
    476c:	c1 cf       	rjmp	.-126    	; 0x46f0 <vfprintf+0x5c>
    476e:	98 2f       	mov	r25, r24
    4770:	9f 7d       	andi	r25, 0xDF	; 223
    4772:	95 54       	subi	r25, 0x45	; 69
    4774:	93 30       	cpi	r25, 0x03	; 3
    4776:	28 f4       	brcc	.+10     	; 0x4782 <vfprintf+0xee>
    4778:	0c 5f       	subi	r16, 0xFC	; 252
    477a:	1f 4f       	sbci	r17, 0xFF	; 255
    477c:	ff e3       	ldi	r31, 0x3F	; 63
    477e:	f9 83       	std	Y+1, r31	; 0x01
    4780:	0d c0       	rjmp	.+26     	; 0x479c <vfprintf+0x108>
    4782:	83 36       	cpi	r24, 0x63	; 99
    4784:	31 f0       	breq	.+12     	; 0x4792 <vfprintf+0xfe>
    4786:	83 37       	cpi	r24, 0x73	; 115
    4788:	71 f0       	breq	.+28     	; 0x47a6 <vfprintf+0x112>
    478a:	83 35       	cpi	r24, 0x53	; 83
    478c:	09 f0       	breq	.+2      	; 0x4790 <vfprintf+0xfc>
    478e:	5b c0       	rjmp	.+182    	; 0x4846 <vfprintf+0x1b2>
    4790:	22 c0       	rjmp	.+68     	; 0x47d6 <vfprintf+0x142>
    4792:	f8 01       	movw	r30, r16
    4794:	80 81       	ld	r24, Z
    4796:	89 83       	std	Y+1, r24	; 0x01
    4798:	0e 5f       	subi	r16, 0xFE	; 254
    479a:	1f 4f       	sbci	r17, 0xFF	; 255
    479c:	44 24       	eor	r4, r4
    479e:	43 94       	inc	r4
    47a0:	51 2c       	mov	r5, r1
    47a2:	54 01       	movw	r10, r8
    47a4:	15 c0       	rjmp	.+42     	; 0x47d0 <vfprintf+0x13c>
    47a6:	38 01       	movw	r6, r16
    47a8:	f2 e0       	ldi	r31, 0x02	; 2
    47aa:	6f 0e       	add	r6, r31
    47ac:	71 1c       	adc	r7, r1
    47ae:	f8 01       	movw	r30, r16
    47b0:	a0 80       	ld	r10, Z
    47b2:	b1 80       	ldd	r11, Z+1	; 0x01
    47b4:	26 ff       	sbrs	r18, 6
    47b6:	03 c0       	rjmp	.+6      	; 0x47be <vfprintf+0x12a>
    47b8:	65 2d       	mov	r22, r5
    47ba:	70 e0       	ldi	r23, 0x00	; 0
    47bc:	02 c0       	rjmp	.+4      	; 0x47c2 <vfprintf+0x12e>
    47be:	6f ef       	ldi	r22, 0xFF	; 255
    47c0:	7f ef       	ldi	r23, 0xFF	; 255
    47c2:	c5 01       	movw	r24, r10
    47c4:	2c 87       	std	Y+12, r18	; 0x0c
    47c6:	0e 94 ef 27 	call	0x4fde	; 0x4fde <strnlen>
    47ca:	2c 01       	movw	r4, r24
    47cc:	83 01       	movw	r16, r6
    47ce:	2c 85       	ldd	r18, Y+12	; 0x0c
    47d0:	2f 77       	andi	r18, 0x7F	; 127
    47d2:	22 2e       	mov	r2, r18
    47d4:	17 c0       	rjmp	.+46     	; 0x4804 <vfprintf+0x170>
    47d6:	38 01       	movw	r6, r16
    47d8:	f2 e0       	ldi	r31, 0x02	; 2
    47da:	6f 0e       	add	r6, r31
    47dc:	71 1c       	adc	r7, r1
    47de:	f8 01       	movw	r30, r16
    47e0:	a0 80       	ld	r10, Z
    47e2:	b1 80       	ldd	r11, Z+1	; 0x01
    47e4:	26 ff       	sbrs	r18, 6
    47e6:	03 c0       	rjmp	.+6      	; 0x47ee <vfprintf+0x15a>
    47e8:	65 2d       	mov	r22, r5
    47ea:	70 e0       	ldi	r23, 0x00	; 0
    47ec:	02 c0       	rjmp	.+4      	; 0x47f2 <vfprintf+0x15e>
    47ee:	6f ef       	ldi	r22, 0xFF	; 255
    47f0:	7f ef       	ldi	r23, 0xFF	; 255
    47f2:	c5 01       	movw	r24, r10
    47f4:	2c 87       	std	Y+12, r18	; 0x0c
    47f6:	0e 94 e4 27 	call	0x4fc8	; 0x4fc8 <strnlen_P>
    47fa:	2c 01       	movw	r4, r24
    47fc:	2c 85       	ldd	r18, Y+12	; 0x0c
    47fe:	20 68       	ori	r18, 0x80	; 128
    4800:	22 2e       	mov	r2, r18
    4802:	83 01       	movw	r16, r6
    4804:	23 fc       	sbrc	r2, 3
    4806:	1b c0       	rjmp	.+54     	; 0x483e <vfprintf+0x1aa>
    4808:	83 2d       	mov	r24, r3
    480a:	90 e0       	ldi	r25, 0x00	; 0
    480c:	48 16       	cp	r4, r24
    480e:	59 06       	cpc	r5, r25
    4810:	b0 f4       	brcc	.+44     	; 0x483e <vfprintf+0x1aa>
    4812:	b7 01       	movw	r22, r14
    4814:	80 e2       	ldi	r24, 0x20	; 32
    4816:	90 e0       	ldi	r25, 0x00	; 0
    4818:	0e 94 38 28 	call	0x5070	; 0x5070 <fputc>
    481c:	3a 94       	dec	r3
    481e:	f4 cf       	rjmp	.-24     	; 0x4808 <vfprintf+0x174>
    4820:	f5 01       	movw	r30, r10
    4822:	27 fc       	sbrc	r2, 7
    4824:	85 91       	lpm	r24, Z+
    4826:	27 fe       	sbrs	r2, 7
    4828:	81 91       	ld	r24, Z+
    482a:	5f 01       	movw	r10, r30
    482c:	b7 01       	movw	r22, r14
    482e:	90 e0       	ldi	r25, 0x00	; 0
    4830:	0e 94 38 28 	call	0x5070	; 0x5070 <fputc>
    4834:	31 10       	cpse	r3, r1
    4836:	3a 94       	dec	r3
    4838:	f1 e0       	ldi	r31, 0x01	; 1
    483a:	4f 1a       	sub	r4, r31
    483c:	51 08       	sbc	r5, r1
    483e:	41 14       	cp	r4, r1
    4840:	51 04       	cpc	r5, r1
    4842:	71 f7       	brne	.-36     	; 0x4820 <vfprintf+0x18c>
    4844:	e5 c0       	rjmp	.+458    	; 0x4a10 <vfprintf+0x37c>
    4846:	84 36       	cpi	r24, 0x64	; 100
    4848:	11 f0       	breq	.+4      	; 0x484e <vfprintf+0x1ba>
    484a:	89 36       	cpi	r24, 0x69	; 105
    484c:	39 f5       	brne	.+78     	; 0x489c <vfprintf+0x208>
    484e:	f8 01       	movw	r30, r16
    4850:	27 ff       	sbrs	r18, 7
    4852:	07 c0       	rjmp	.+14     	; 0x4862 <vfprintf+0x1ce>
    4854:	60 81       	ld	r22, Z
    4856:	71 81       	ldd	r23, Z+1	; 0x01
    4858:	82 81       	ldd	r24, Z+2	; 0x02
    485a:	93 81       	ldd	r25, Z+3	; 0x03
    485c:	0c 5f       	subi	r16, 0xFC	; 252
    485e:	1f 4f       	sbci	r17, 0xFF	; 255
    4860:	08 c0       	rjmp	.+16     	; 0x4872 <vfprintf+0x1de>
    4862:	60 81       	ld	r22, Z
    4864:	71 81       	ldd	r23, Z+1	; 0x01
    4866:	88 27       	eor	r24, r24
    4868:	77 fd       	sbrc	r23, 7
    486a:	80 95       	com	r24
    486c:	98 2f       	mov	r25, r24
    486e:	0e 5f       	subi	r16, 0xFE	; 254
    4870:	1f 4f       	sbci	r17, 0xFF	; 255
    4872:	2f 76       	andi	r18, 0x6F	; 111
    4874:	b2 2e       	mov	r11, r18
    4876:	97 ff       	sbrs	r25, 7
    4878:	09 c0       	rjmp	.+18     	; 0x488c <vfprintf+0x1f8>
    487a:	90 95       	com	r25
    487c:	80 95       	com	r24
    487e:	70 95       	com	r23
    4880:	61 95       	neg	r22
    4882:	7f 4f       	sbci	r23, 0xFF	; 255
    4884:	8f 4f       	sbci	r24, 0xFF	; 255
    4886:	9f 4f       	sbci	r25, 0xFF	; 255
    4888:	20 68       	ori	r18, 0x80	; 128
    488a:	b2 2e       	mov	r11, r18
    488c:	2a e0       	ldi	r18, 0x0A	; 10
    488e:	30 e0       	ldi	r19, 0x00	; 0
    4890:	a4 01       	movw	r20, r8
    4892:	0e 94 83 28 	call	0x5106	; 0x5106 <__ultoa_invert>
    4896:	a8 2e       	mov	r10, r24
    4898:	a8 18       	sub	r10, r8
    489a:	44 c0       	rjmp	.+136    	; 0x4924 <vfprintf+0x290>
    489c:	85 37       	cpi	r24, 0x75	; 117
    489e:	29 f4       	brne	.+10     	; 0x48aa <vfprintf+0x216>
    48a0:	2f 7e       	andi	r18, 0xEF	; 239
    48a2:	b2 2e       	mov	r11, r18
    48a4:	2a e0       	ldi	r18, 0x0A	; 10
    48a6:	30 e0       	ldi	r19, 0x00	; 0
    48a8:	25 c0       	rjmp	.+74     	; 0x48f4 <vfprintf+0x260>
    48aa:	f2 2f       	mov	r31, r18
    48ac:	f9 7f       	andi	r31, 0xF9	; 249
    48ae:	bf 2e       	mov	r11, r31
    48b0:	8f 36       	cpi	r24, 0x6F	; 111
    48b2:	c1 f0       	breq	.+48     	; 0x48e4 <vfprintf+0x250>
    48b4:	18 f4       	brcc	.+6      	; 0x48bc <vfprintf+0x228>
    48b6:	88 35       	cpi	r24, 0x58	; 88
    48b8:	79 f0       	breq	.+30     	; 0x48d8 <vfprintf+0x244>
    48ba:	b4 c0       	rjmp	.+360    	; 0x4a24 <vfprintf+0x390>
    48bc:	80 37       	cpi	r24, 0x70	; 112
    48be:	19 f0       	breq	.+6      	; 0x48c6 <vfprintf+0x232>
    48c0:	88 37       	cpi	r24, 0x78	; 120
    48c2:	21 f0       	breq	.+8      	; 0x48cc <vfprintf+0x238>
    48c4:	af c0       	rjmp	.+350    	; 0x4a24 <vfprintf+0x390>
    48c6:	2f 2f       	mov	r18, r31
    48c8:	20 61       	ori	r18, 0x10	; 16
    48ca:	b2 2e       	mov	r11, r18
    48cc:	b4 fe       	sbrs	r11, 4
    48ce:	0d c0       	rjmp	.+26     	; 0x48ea <vfprintf+0x256>
    48d0:	8b 2d       	mov	r24, r11
    48d2:	84 60       	ori	r24, 0x04	; 4
    48d4:	b8 2e       	mov	r11, r24
    48d6:	09 c0       	rjmp	.+18     	; 0x48ea <vfprintf+0x256>
    48d8:	24 ff       	sbrs	r18, 4
    48da:	0a c0       	rjmp	.+20     	; 0x48f0 <vfprintf+0x25c>
    48dc:	9f 2f       	mov	r25, r31
    48de:	96 60       	ori	r25, 0x06	; 6
    48e0:	b9 2e       	mov	r11, r25
    48e2:	06 c0       	rjmp	.+12     	; 0x48f0 <vfprintf+0x25c>
    48e4:	28 e0       	ldi	r18, 0x08	; 8
    48e6:	30 e0       	ldi	r19, 0x00	; 0
    48e8:	05 c0       	rjmp	.+10     	; 0x48f4 <vfprintf+0x260>
    48ea:	20 e1       	ldi	r18, 0x10	; 16
    48ec:	30 e0       	ldi	r19, 0x00	; 0
    48ee:	02 c0       	rjmp	.+4      	; 0x48f4 <vfprintf+0x260>
    48f0:	20 e1       	ldi	r18, 0x10	; 16
    48f2:	32 e0       	ldi	r19, 0x02	; 2
    48f4:	f8 01       	movw	r30, r16
    48f6:	b7 fe       	sbrs	r11, 7
    48f8:	07 c0       	rjmp	.+14     	; 0x4908 <vfprintf+0x274>
    48fa:	60 81       	ld	r22, Z
    48fc:	71 81       	ldd	r23, Z+1	; 0x01
    48fe:	82 81       	ldd	r24, Z+2	; 0x02
    4900:	93 81       	ldd	r25, Z+3	; 0x03
    4902:	0c 5f       	subi	r16, 0xFC	; 252
    4904:	1f 4f       	sbci	r17, 0xFF	; 255
    4906:	06 c0       	rjmp	.+12     	; 0x4914 <vfprintf+0x280>
    4908:	60 81       	ld	r22, Z
    490a:	71 81       	ldd	r23, Z+1	; 0x01
    490c:	80 e0       	ldi	r24, 0x00	; 0
    490e:	90 e0       	ldi	r25, 0x00	; 0
    4910:	0e 5f       	subi	r16, 0xFE	; 254
    4912:	1f 4f       	sbci	r17, 0xFF	; 255
    4914:	a4 01       	movw	r20, r8
    4916:	0e 94 83 28 	call	0x5106	; 0x5106 <__ultoa_invert>
    491a:	a8 2e       	mov	r10, r24
    491c:	a8 18       	sub	r10, r8
    491e:	fb 2d       	mov	r31, r11
    4920:	ff 77       	andi	r31, 0x7F	; 127
    4922:	bf 2e       	mov	r11, r31
    4924:	b6 fe       	sbrs	r11, 6
    4926:	0b c0       	rjmp	.+22     	; 0x493e <vfprintf+0x2aa>
    4928:	2b 2d       	mov	r18, r11
    492a:	2e 7f       	andi	r18, 0xFE	; 254
    492c:	a5 14       	cp	r10, r5
    492e:	50 f4       	brcc	.+20     	; 0x4944 <vfprintf+0x2b0>
    4930:	b4 fe       	sbrs	r11, 4
    4932:	0a c0       	rjmp	.+20     	; 0x4948 <vfprintf+0x2b4>
    4934:	b2 fc       	sbrc	r11, 2
    4936:	08 c0       	rjmp	.+16     	; 0x4948 <vfprintf+0x2b4>
    4938:	2b 2d       	mov	r18, r11
    493a:	2e 7e       	andi	r18, 0xEE	; 238
    493c:	05 c0       	rjmp	.+10     	; 0x4948 <vfprintf+0x2b4>
    493e:	7a 2c       	mov	r7, r10
    4940:	2b 2d       	mov	r18, r11
    4942:	03 c0       	rjmp	.+6      	; 0x494a <vfprintf+0x2b6>
    4944:	7a 2c       	mov	r7, r10
    4946:	01 c0       	rjmp	.+2      	; 0x494a <vfprintf+0x2b6>
    4948:	75 2c       	mov	r7, r5
    494a:	24 ff       	sbrs	r18, 4
    494c:	0d c0       	rjmp	.+26     	; 0x4968 <vfprintf+0x2d4>
    494e:	fe 01       	movw	r30, r28
    4950:	ea 0d       	add	r30, r10
    4952:	f1 1d       	adc	r31, r1
    4954:	80 81       	ld	r24, Z
    4956:	80 33       	cpi	r24, 0x30	; 48
    4958:	11 f4       	brne	.+4      	; 0x495e <vfprintf+0x2ca>
    495a:	29 7e       	andi	r18, 0xE9	; 233
    495c:	09 c0       	rjmp	.+18     	; 0x4970 <vfprintf+0x2dc>
    495e:	22 ff       	sbrs	r18, 2
    4960:	06 c0       	rjmp	.+12     	; 0x496e <vfprintf+0x2da>
    4962:	73 94       	inc	r7
    4964:	73 94       	inc	r7
    4966:	04 c0       	rjmp	.+8      	; 0x4970 <vfprintf+0x2dc>
    4968:	82 2f       	mov	r24, r18
    496a:	86 78       	andi	r24, 0x86	; 134
    496c:	09 f0       	breq	.+2      	; 0x4970 <vfprintf+0x2dc>
    496e:	73 94       	inc	r7
    4970:	23 fd       	sbrc	r18, 3
    4972:	13 c0       	rjmp	.+38     	; 0x499a <vfprintf+0x306>
    4974:	20 ff       	sbrs	r18, 0
    4976:	06 c0       	rjmp	.+12     	; 0x4984 <vfprintf+0x2f0>
    4978:	5a 2c       	mov	r5, r10
    497a:	73 14       	cp	r7, r3
    497c:	18 f4       	brcc	.+6      	; 0x4984 <vfprintf+0x2f0>
    497e:	53 0c       	add	r5, r3
    4980:	57 18       	sub	r5, r7
    4982:	73 2c       	mov	r7, r3
    4984:	73 14       	cp	r7, r3
    4986:	68 f4       	brcc	.+26     	; 0x49a2 <vfprintf+0x30e>
    4988:	b7 01       	movw	r22, r14
    498a:	80 e2       	ldi	r24, 0x20	; 32
    498c:	90 e0       	ldi	r25, 0x00	; 0
    498e:	2c 87       	std	Y+12, r18	; 0x0c
    4990:	0e 94 38 28 	call	0x5070	; 0x5070 <fputc>
    4994:	73 94       	inc	r7
    4996:	2c 85       	ldd	r18, Y+12	; 0x0c
    4998:	f5 cf       	rjmp	.-22     	; 0x4984 <vfprintf+0x2f0>
    499a:	73 14       	cp	r7, r3
    499c:	10 f4       	brcc	.+4      	; 0x49a2 <vfprintf+0x30e>
    499e:	37 18       	sub	r3, r7
    49a0:	01 c0       	rjmp	.+2      	; 0x49a4 <vfprintf+0x310>
    49a2:	31 2c       	mov	r3, r1
    49a4:	24 ff       	sbrs	r18, 4
    49a6:	12 c0       	rjmp	.+36     	; 0x49cc <vfprintf+0x338>
    49a8:	b7 01       	movw	r22, r14
    49aa:	80 e3       	ldi	r24, 0x30	; 48
    49ac:	90 e0       	ldi	r25, 0x00	; 0
    49ae:	2c 87       	std	Y+12, r18	; 0x0c
    49b0:	0e 94 38 28 	call	0x5070	; 0x5070 <fputc>
    49b4:	2c 85       	ldd	r18, Y+12	; 0x0c
    49b6:	22 ff       	sbrs	r18, 2
    49b8:	17 c0       	rjmp	.+46     	; 0x49e8 <vfprintf+0x354>
    49ba:	21 ff       	sbrs	r18, 1
    49bc:	03 c0       	rjmp	.+6      	; 0x49c4 <vfprintf+0x330>
    49be:	88 e5       	ldi	r24, 0x58	; 88
    49c0:	90 e0       	ldi	r25, 0x00	; 0
    49c2:	02 c0       	rjmp	.+4      	; 0x49c8 <vfprintf+0x334>
    49c4:	88 e7       	ldi	r24, 0x78	; 120
    49c6:	90 e0       	ldi	r25, 0x00	; 0
    49c8:	b7 01       	movw	r22, r14
    49ca:	0c c0       	rjmp	.+24     	; 0x49e4 <vfprintf+0x350>
    49cc:	82 2f       	mov	r24, r18
    49ce:	86 78       	andi	r24, 0x86	; 134
    49d0:	59 f0       	breq	.+22     	; 0x49e8 <vfprintf+0x354>
    49d2:	21 fd       	sbrc	r18, 1
    49d4:	02 c0       	rjmp	.+4      	; 0x49da <vfprintf+0x346>
    49d6:	80 e2       	ldi	r24, 0x20	; 32
    49d8:	01 c0       	rjmp	.+2      	; 0x49dc <vfprintf+0x348>
    49da:	8b e2       	ldi	r24, 0x2B	; 43
    49dc:	27 fd       	sbrc	r18, 7
    49de:	8d e2       	ldi	r24, 0x2D	; 45
    49e0:	b7 01       	movw	r22, r14
    49e2:	90 e0       	ldi	r25, 0x00	; 0
    49e4:	0e 94 38 28 	call	0x5070	; 0x5070 <fputc>
    49e8:	a5 14       	cp	r10, r5
    49ea:	38 f4       	brcc	.+14     	; 0x49fa <vfprintf+0x366>
    49ec:	b7 01       	movw	r22, r14
    49ee:	80 e3       	ldi	r24, 0x30	; 48
    49f0:	90 e0       	ldi	r25, 0x00	; 0
    49f2:	0e 94 38 28 	call	0x5070	; 0x5070 <fputc>
    49f6:	5a 94       	dec	r5
    49f8:	f7 cf       	rjmp	.-18     	; 0x49e8 <vfprintf+0x354>
    49fa:	aa 94       	dec	r10
    49fc:	f4 01       	movw	r30, r8
    49fe:	ea 0d       	add	r30, r10
    4a00:	f1 1d       	adc	r31, r1
    4a02:	80 81       	ld	r24, Z
    4a04:	b7 01       	movw	r22, r14
    4a06:	90 e0       	ldi	r25, 0x00	; 0
    4a08:	0e 94 38 28 	call	0x5070	; 0x5070 <fputc>
    4a0c:	a1 10       	cpse	r10, r1
    4a0e:	f5 cf       	rjmp	.-22     	; 0x49fa <vfprintf+0x366>
    4a10:	33 20       	and	r3, r3
    4a12:	09 f4       	brne	.+2      	; 0x4a16 <vfprintf+0x382>
    4a14:	51 ce       	rjmp	.-862    	; 0x46b8 <vfprintf+0x24>
    4a16:	b7 01       	movw	r22, r14
    4a18:	80 e2       	ldi	r24, 0x20	; 32
    4a1a:	90 e0       	ldi	r25, 0x00	; 0
    4a1c:	0e 94 38 28 	call	0x5070	; 0x5070 <fputc>
    4a20:	3a 94       	dec	r3
    4a22:	f6 cf       	rjmp	.-20     	; 0x4a10 <vfprintf+0x37c>
    4a24:	f7 01       	movw	r30, r14
    4a26:	86 81       	ldd	r24, Z+6	; 0x06
    4a28:	97 81       	ldd	r25, Z+7	; 0x07
    4a2a:	02 c0       	rjmp	.+4      	; 0x4a30 <vfprintf+0x39c>
    4a2c:	8f ef       	ldi	r24, 0xFF	; 255
    4a2e:	9f ef       	ldi	r25, 0xFF	; 255
    4a30:	2c 96       	adiw	r28, 0x0c	; 12
    4a32:	e2 e1       	ldi	r30, 0x12	; 18
    4a34:	0c 94 08 29 	jmp	0x5210	; 0x5210 <__epilogue_restores__>

00004a38 <putval>:
    4a38:	20 fd       	sbrc	r18, 0
    4a3a:	09 c0       	rjmp	.+18     	; 0x4a4e <putval+0x16>
    4a3c:	fc 01       	movw	r30, r24
    4a3e:	23 fd       	sbrc	r18, 3
    4a40:	05 c0       	rjmp	.+10     	; 0x4a4c <putval+0x14>
    4a42:	22 ff       	sbrs	r18, 2
    4a44:	02 c0       	rjmp	.+4      	; 0x4a4a <putval+0x12>
    4a46:	73 83       	std	Z+3, r23	; 0x03
    4a48:	62 83       	std	Z+2, r22	; 0x02
    4a4a:	51 83       	std	Z+1, r21	; 0x01
    4a4c:	40 83       	st	Z, r20
    4a4e:	08 95       	ret

00004a50 <mulacc>:
    4a50:	44 fd       	sbrc	r20, 4
    4a52:	10 c0       	rjmp	.+32     	; 0x4a74 <mulacc+0x24>
    4a54:	46 fd       	sbrc	r20, 6
    4a56:	10 c0       	rjmp	.+32     	; 0x4a78 <mulacc+0x28>
    4a58:	db 01       	movw	r26, r22
    4a5a:	fc 01       	movw	r30, r24
    4a5c:	aa 0f       	add	r26, r26
    4a5e:	bb 1f       	adc	r27, r27
    4a60:	ee 1f       	adc	r30, r30
    4a62:	ff 1f       	adc	r31, r31
    4a64:	10 94       	com	r1
    4a66:	d1 f7       	brne	.-12     	; 0x4a5c <mulacc+0xc>
    4a68:	6a 0f       	add	r22, r26
    4a6a:	7b 1f       	adc	r23, r27
    4a6c:	8e 1f       	adc	r24, r30
    4a6e:	9f 1f       	adc	r25, r31
    4a70:	31 e0       	ldi	r19, 0x01	; 1
    4a72:	03 c0       	rjmp	.+6      	; 0x4a7a <mulacc+0x2a>
    4a74:	33 e0       	ldi	r19, 0x03	; 3
    4a76:	01 c0       	rjmp	.+2      	; 0x4a7a <mulacc+0x2a>
    4a78:	34 e0       	ldi	r19, 0x04	; 4
    4a7a:	66 0f       	add	r22, r22
    4a7c:	77 1f       	adc	r23, r23
    4a7e:	88 1f       	adc	r24, r24
    4a80:	99 1f       	adc	r25, r25
    4a82:	31 50       	subi	r19, 0x01	; 1
    4a84:	d1 f7       	brne	.-12     	; 0x4a7a <mulacc+0x2a>
    4a86:	62 0f       	add	r22, r18
    4a88:	71 1d       	adc	r23, r1
    4a8a:	81 1d       	adc	r24, r1
    4a8c:	91 1d       	adc	r25, r1
    4a8e:	08 95       	ret

00004a90 <skip_spaces>:
    4a90:	0f 93       	push	r16
    4a92:	1f 93       	push	r17
    4a94:	cf 93       	push	r28
    4a96:	df 93       	push	r29
    4a98:	8c 01       	movw	r16, r24
    4a9a:	c8 01       	movw	r24, r16
    4a9c:	0e 94 fa 27 	call	0x4ff4	; 0x4ff4 <fgetc>
    4aa0:	ec 01       	movw	r28, r24
    4aa2:	97 fd       	sbrc	r25, 7
    4aa4:	08 c0       	rjmp	.+16     	; 0x4ab6 <skip_spaces+0x26>
    4aa6:	0e 94 d1 27 	call	0x4fa2	; 0x4fa2 <isspace>
    4aaa:	89 2b       	or	r24, r25
    4aac:	b1 f7       	brne	.-20     	; 0x4a9a <skip_spaces+0xa>
    4aae:	b8 01       	movw	r22, r16
    4ab0:	ce 01       	movw	r24, r28
    4ab2:	0e 94 6a 28 	call	0x50d4	; 0x50d4 <ungetc>
    4ab6:	ce 01       	movw	r24, r28
    4ab8:	df 91       	pop	r29
    4aba:	cf 91       	pop	r28
    4abc:	1f 91       	pop	r17
    4abe:	0f 91       	pop	r16
    4ac0:	08 95       	ret

00004ac2 <conv_int>:
    4ac2:	8f 92       	push	r8
    4ac4:	9f 92       	push	r9
    4ac6:	af 92       	push	r10
    4ac8:	cf 92       	push	r12
    4aca:	df 92       	push	r13
    4acc:	ef 92       	push	r14
    4ace:	ff 92       	push	r15
    4ad0:	0f 93       	push	r16
    4ad2:	1f 93       	push	r17
    4ad4:	cf 93       	push	r28
    4ad6:	df 93       	push	r29
    4ad8:	ec 01       	movw	r28, r24
    4ada:	a6 2e       	mov	r10, r22
    4adc:	4a 01       	movw	r8, r20
    4ade:	02 2f       	mov	r16, r18
    4ae0:	0e 94 fa 27 	call	0x4ff4	; 0x4ff4 <fgetc>
    4ae4:	ac 01       	movw	r20, r24
    4ae6:	55 27       	eor	r21, r21
    4ae8:	4b 32       	cpi	r20, 0x2B	; 43
    4aea:	51 05       	cpc	r21, r1
    4aec:	21 f0       	breq	.+8      	; 0x4af6 <conv_int+0x34>
    4aee:	4d 32       	cpi	r20, 0x2D	; 45
    4af0:	51 05       	cpc	r21, r1
    4af2:	51 f4       	brne	.+20     	; 0x4b08 <conv_int+0x46>
    4af4:	00 68       	ori	r16, 0x80	; 128
    4af6:	aa 94       	dec	r10
    4af8:	11 f4       	brne	.+4      	; 0x4afe <conv_int+0x3c>
    4afa:	80 e0       	ldi	r24, 0x00	; 0
    4afc:	67 c0       	rjmp	.+206    	; 0x4bcc <conv_int+0x10a>
    4afe:	ce 01       	movw	r24, r28
    4b00:	0e 94 fa 27 	call	0x4ff4	; 0x4ff4 <fgetc>
    4b04:	97 fd       	sbrc	r25, 7
    4b06:	f9 cf       	rjmp	.-14     	; 0x4afa <conv_int+0x38>
    4b08:	10 2f       	mov	r17, r16
    4b0a:	1d 7f       	andi	r17, 0xFD	; 253
    4b0c:	30 2f       	mov	r19, r16
    4b0e:	30 73       	andi	r19, 0x30	; 48
    4b10:	01 f5       	brne	.+64     	; 0x4b52 <conv_int+0x90>
    4b12:	80 33       	cpi	r24, 0x30	; 48
    4b14:	f1 f4       	brne	.+60     	; 0x4b52 <conv_int+0x90>
    4b16:	ff 24       	eor	r15, r15
    4b18:	fa 94       	dec	r15
    4b1a:	fa 0c       	add	r15, r10
    4b1c:	09 f4       	brne	.+2      	; 0x4b20 <conv_int+0x5e>
    4b1e:	42 c0       	rjmp	.+132    	; 0x4ba4 <conv_int+0xe2>
    4b20:	ce 01       	movw	r24, r28
    4b22:	0e 94 fa 27 	call	0x4ff4	; 0x4ff4 <fgetc>
    4b26:	97 fd       	sbrc	r25, 7
    4b28:	3d c0       	rjmp	.+122    	; 0x4ba4 <conv_int+0xe2>
    4b2a:	38 2f       	mov	r19, r24
    4b2c:	3f 7d       	andi	r19, 0xDF	; 223
    4b2e:	38 35       	cpi	r19, 0x58	; 88
    4b30:	51 f4       	brne	.+20     	; 0x4b46 <conv_int+0x84>
    4b32:	12 64       	ori	r17, 0x42	; 66
    4b34:	aa 94       	dec	r10
    4b36:	aa 94       	dec	r10
    4b38:	a9 f1       	breq	.+106    	; 0x4ba4 <conv_int+0xe2>
    4b3a:	ce 01       	movw	r24, r28
    4b3c:	0e 94 fa 27 	call	0x4ff4	; 0x4ff4 <fgetc>
    4b40:	97 ff       	sbrs	r25, 7
    4b42:	07 c0       	rjmp	.+14     	; 0x4b52 <conv_int+0x90>
    4b44:	2f c0       	rjmp	.+94     	; 0x4ba4 <conv_int+0xe2>
    4b46:	06 ff       	sbrs	r16, 6
    4b48:	02 c0       	rjmp	.+4      	; 0x4b4e <conv_int+0x8c>
    4b4a:	12 60       	ori	r17, 0x02	; 2
    4b4c:	01 c0       	rjmp	.+2      	; 0x4b50 <conv_int+0x8e>
    4b4e:	12 61       	ori	r17, 0x12	; 18
    4b50:	af 2c       	mov	r10, r15
    4b52:	c1 2c       	mov	r12, r1
    4b54:	d1 2c       	mov	r13, r1
    4b56:	76 01       	movw	r14, r12
    4b58:	20 ed       	ldi	r18, 0xD0	; 208
    4b5a:	28 0f       	add	r18, r24
    4b5c:	28 30       	cpi	r18, 0x08	; 8
    4b5e:	80 f0       	brcs	.+32     	; 0x4b80 <conv_int+0xbe>
    4b60:	14 ff       	sbrs	r17, 4
    4b62:	04 c0       	rjmp	.+8      	; 0x4b6c <conv_int+0xaa>
    4b64:	be 01       	movw	r22, r28
    4b66:	0e 94 6a 28 	call	0x50d4	; 0x50d4 <ungetc>
    4b6a:	19 c0       	rjmp	.+50     	; 0x4b9e <conv_int+0xdc>
    4b6c:	2a 30       	cpi	r18, 0x0A	; 10
    4b6e:	40 f0       	brcs	.+16     	; 0x4b80 <conv_int+0xbe>
    4b70:	16 ff       	sbrs	r17, 6
    4b72:	f8 cf       	rjmp	.-16     	; 0x4b64 <conv_int+0xa2>
    4b74:	2f 7d       	andi	r18, 0xDF	; 223
    4b76:	3f ee       	ldi	r19, 0xEF	; 239
    4b78:	32 0f       	add	r19, r18
    4b7a:	36 30       	cpi	r19, 0x06	; 6
    4b7c:	98 f7       	brcc	.-26     	; 0x4b64 <conv_int+0xa2>
    4b7e:	27 50       	subi	r18, 0x07	; 7
    4b80:	41 2f       	mov	r20, r17
    4b82:	c7 01       	movw	r24, r14
    4b84:	b6 01       	movw	r22, r12
    4b86:	0e 94 28 25 	call	0x4a50	; 0x4a50 <mulacc>
    4b8a:	6b 01       	movw	r12, r22
    4b8c:	7c 01       	movw	r14, r24
    4b8e:	12 60       	ori	r17, 0x02	; 2
    4b90:	aa 94       	dec	r10
    4b92:	59 f0       	breq	.+22     	; 0x4baa <conv_int+0xe8>
    4b94:	ce 01       	movw	r24, r28
    4b96:	0e 94 fa 27 	call	0x4ff4	; 0x4ff4 <fgetc>
    4b9a:	97 ff       	sbrs	r25, 7
    4b9c:	dd cf       	rjmp	.-70     	; 0x4b58 <conv_int+0x96>
    4b9e:	11 fd       	sbrc	r17, 1
    4ba0:	04 c0       	rjmp	.+8      	; 0x4baa <conv_int+0xe8>
    4ba2:	ab cf       	rjmp	.-170    	; 0x4afa <conv_int+0x38>
    4ba4:	c1 2c       	mov	r12, r1
    4ba6:	d1 2c       	mov	r13, r1
    4ba8:	76 01       	movw	r14, r12
    4baa:	17 ff       	sbrs	r17, 7
    4bac:	08 c0       	rjmp	.+16     	; 0x4bbe <conv_int+0xfc>
    4bae:	f0 94       	com	r15
    4bb0:	e0 94       	com	r14
    4bb2:	d0 94       	com	r13
    4bb4:	c0 94       	com	r12
    4bb6:	c1 1c       	adc	r12, r1
    4bb8:	d1 1c       	adc	r13, r1
    4bba:	e1 1c       	adc	r14, r1
    4bbc:	f1 1c       	adc	r15, r1
    4bbe:	21 2f       	mov	r18, r17
    4bc0:	b7 01       	movw	r22, r14
    4bc2:	a6 01       	movw	r20, r12
    4bc4:	c4 01       	movw	r24, r8
    4bc6:	0e 94 1c 25 	call	0x4a38	; 0x4a38 <putval>
    4bca:	81 e0       	ldi	r24, 0x01	; 1
    4bcc:	df 91       	pop	r29
    4bce:	cf 91       	pop	r28
    4bd0:	1f 91       	pop	r17
    4bd2:	0f 91       	pop	r16
    4bd4:	ff 90       	pop	r15
    4bd6:	ef 90       	pop	r14
    4bd8:	df 90       	pop	r13
    4bda:	cf 90       	pop	r12
    4bdc:	af 90       	pop	r10
    4bde:	9f 90       	pop	r9
    4be0:	8f 90       	pop	r8
    4be2:	08 95       	ret

00004be4 <conv_brk>:
    4be4:	a1 e2       	ldi	r26, 0x21	; 33
    4be6:	b0 e0       	ldi	r27, 0x00	; 0
    4be8:	e8 ef       	ldi	r30, 0xF8	; 248
    4bea:	f5 e2       	ldi	r31, 0x25	; 37
    4bec:	0c 94 f1 28 	jmp	0x51e2	; 0x51e2 <__prologue_saves__+0xa>
    4bf0:	5c 01       	movw	r10, r24
    4bf2:	7a 01       	movw	r14, r20
    4bf4:	8e 01       	movw	r16, r28
    4bf6:	0f 5f       	subi	r16, 0xFF	; 255
    4bf8:	1f 4f       	sbci	r17, 0xFF	; 255
    4bfa:	68 01       	movw	r12, r16
    4bfc:	80 e2       	ldi	r24, 0x20	; 32
    4bfe:	d8 01       	movw	r26, r16
    4c00:	1d 92       	st	X+, r1
    4c02:	8a 95       	dec	r24
    4c04:	e9 f7       	brne	.-6      	; 0x4c00 <conv_brk+0x1c>
    4c06:	f5 01       	movw	r30, r10
    4c08:	73 80       	ldd	r7, Z+3	; 0x03
    4c0a:	40 e0       	ldi	r20, 0x00	; 0
    4c0c:	50 e0       	ldi	r21, 0x00	; 0
    4c0e:	81 2c       	mov	r8, r1
    4c10:	b0 e0       	ldi	r27, 0x00	; 0
    4c12:	91 2c       	mov	r9, r1
    4c14:	81 e0       	ldi	r24, 0x01	; 1
    4c16:	90 e0       	ldi	r25, 0x00	; 0
    4c18:	f9 01       	movw	r30, r18
    4c1a:	73 fc       	sbrc	r7, 3
    4c1c:	a5 91       	lpm	r26, Z+
    4c1e:	73 fe       	sbrs	r7, 3
    4c20:	a1 91       	ld	r26, Z+
    4c22:	8f 01       	movw	r16, r30
    4c24:	7a 2f       	mov	r23, r26
    4c26:	9f 01       	movw	r18, r30
    4c28:	a1 11       	cpse	r26, r1
    4c2a:	03 c0       	rjmp	.+6      	; 0x4c32 <conv_brk+0x4e>
    4c2c:	80 e0       	ldi	r24, 0x00	; 0
    4c2e:	90 e0       	ldi	r25, 0x00	; 0
    4c30:	7d c0       	rjmp	.+250    	; 0x4d2c <conv_brk+0x148>
    4c32:	ae 35       	cpi	r26, 0x5E	; 94
    4c34:	19 f4       	brne	.+6      	; 0x4c3c <conv_brk+0x58>
    4c36:	41 15       	cp	r20, r1
    4c38:	51 05       	cpc	r21, r1
    4c3a:	59 f1       	breq	.+86     	; 0x4c92 <conv_brk+0xae>
    4c3c:	e9 2d       	mov	r30, r9
    4c3e:	f0 e0       	ldi	r31, 0x00	; 0
    4c40:	e4 17       	cp	r30, r20
    4c42:	f5 07       	cpc	r31, r21
    4c44:	3c f4       	brge	.+14     	; 0x4c54 <conv_brk+0x70>
    4c46:	ad 35       	cpi	r26, 0x5D	; 93
    4c48:	69 f1       	breq	.+90     	; 0x4ca4 <conv_brk+0xc0>
    4c4a:	ad 32       	cpi	r26, 0x2D	; 45
    4c4c:	19 f4       	brne	.+6      	; 0x4c54 <conv_brk+0x70>
    4c4e:	bb 23       	and	r27, r27
    4c50:	19 f1       	breq	.+70     	; 0x4c98 <conv_brk+0xb4>
    4c52:	03 c0       	rjmp	.+6      	; 0x4c5a <conv_brk+0x76>
    4c54:	b1 11       	cpse	r27, r1
    4c56:	01 c0       	rjmp	.+2      	; 0x4c5a <conv_brk+0x76>
    4c58:	8a 2e       	mov	r8, r26
    4c5a:	e7 2f       	mov	r30, r23
    4c5c:	e6 95       	lsr	r30
    4c5e:	e6 95       	lsr	r30
    4c60:	e6 95       	lsr	r30
    4c62:	86 01       	movw	r16, r12
    4c64:	0e 0f       	add	r16, r30
    4c66:	11 1d       	adc	r17, r1
    4c68:	f8 01       	movw	r30, r16
    4c6a:	a7 2f       	mov	r26, r23
    4c6c:	a7 70       	andi	r26, 0x07	; 7
    4c6e:	8c 01       	movw	r16, r24
    4c70:	02 c0       	rjmp	.+4      	; 0x4c76 <conv_brk+0x92>
    4c72:	00 0f       	add	r16, r16
    4c74:	11 1f       	adc	r17, r17
    4c76:	aa 95       	dec	r26
    4c78:	e2 f7       	brpl	.-8      	; 0x4c72 <conv_brk+0x8e>
    4c7a:	d8 01       	movw	r26, r16
    4c7c:	b0 81       	ld	r27, Z
    4c7e:	ba 2b       	or	r27, r26
    4c80:	b0 83       	st	Z, r27
    4c82:	78 15       	cp	r23, r8
    4c84:	59 f0       	breq	.+22     	; 0x4c9c <conv_brk+0xb8>
    4c86:	78 15       	cp	r23, r8
    4c88:	10 f4       	brcc	.+4      	; 0x4c8e <conv_brk+0xaa>
    4c8a:	7f 5f       	subi	r23, 0xFF	; 255
    4c8c:	e6 cf       	rjmp	.-52     	; 0x4c5a <conv_brk+0x76>
    4c8e:	71 50       	subi	r23, 0x01	; 1
    4c90:	e4 cf       	rjmp	.-56     	; 0x4c5a <conv_brk+0x76>
    4c92:	99 24       	eor	r9, r9
    4c94:	93 94       	inc	r9
    4c96:	03 c0       	rjmp	.+6      	; 0x4c9e <conv_brk+0xba>
    4c98:	b1 e0       	ldi	r27, 0x01	; 1
    4c9a:	01 c0       	rjmp	.+2      	; 0x4c9e <conv_brk+0xba>
    4c9c:	b0 e0       	ldi	r27, 0x00	; 0
    4c9e:	4f 5f       	subi	r20, 0xFF	; 255
    4ca0:	5f 4f       	sbci	r21, 0xFF	; 255
    4ca2:	ba cf       	rjmp	.-140    	; 0x4c18 <conv_brk+0x34>
    4ca4:	bb 23       	and	r27, r27
    4ca6:	19 f0       	breq	.+6      	; 0x4cae <conv_brk+0xca>
    4ca8:	8e 81       	ldd	r24, Y+6	; 0x06
    4caa:	80 62       	ori	r24, 0x20	; 32
    4cac:	8e 83       	std	Y+6, r24	; 0x06
    4cae:	91 10       	cpse	r9, r1
    4cb0:	03 c0       	rjmp	.+6      	; 0x4cb8 <conv_brk+0xd4>
    4cb2:	99 24       	eor	r9, r9
    4cb4:	93 94       	inc	r9
    4cb6:	15 c0       	rjmp	.+42     	; 0x4ce2 <conv_brk+0xfe>
    4cb8:	f6 01       	movw	r30, r12
    4cba:	ce 01       	movw	r24, r28
    4cbc:	81 96       	adiw	r24, 0x21	; 33
    4cbe:	20 81       	ld	r18, Z
    4cc0:	20 95       	com	r18
    4cc2:	21 93       	st	Z+, r18
    4cc4:	e8 17       	cp	r30, r24
    4cc6:	f9 07       	cpc	r31, r25
    4cc8:	d1 f7       	brne	.-12     	; 0x4cbe <conv_brk+0xda>
    4cca:	f3 cf       	rjmp	.-26     	; 0x4cb2 <conv_brk+0xce>
    4ccc:	e1 14       	cp	r14, r1
    4cce:	f1 04       	cpc	r15, r1
    4cd0:	29 f0       	breq	.+10     	; 0x4cdc <conv_brk+0xf8>
    4cd2:	d7 01       	movw	r26, r14
    4cd4:	8c 93       	st	X, r24
    4cd6:	f7 01       	movw	r30, r14
    4cd8:	31 96       	adiw	r30, 0x01	; 1
    4cda:	7f 01       	movw	r14, r30
    4cdc:	61 50       	subi	r22, 0x01	; 1
    4cde:	01 f1       	breq	.+64     	; 0x4d20 <conv_brk+0x13c>
    4ce0:	91 2c       	mov	r9, r1
    4ce2:	c5 01       	movw	r24, r10
    4ce4:	69 a3       	std	Y+33, r22	; 0x21
    4ce6:	0e 94 fa 27 	call	0x4ff4	; 0x4ff4 <fgetc>
    4cea:	69 a1       	ldd	r22, Y+33	; 0x21
    4cec:	97 fd       	sbrc	r25, 7
    4cee:	16 c0       	rjmp	.+44     	; 0x4d1c <conv_brk+0x138>
    4cf0:	28 2f       	mov	r18, r24
    4cf2:	26 95       	lsr	r18
    4cf4:	26 95       	lsr	r18
    4cf6:	26 95       	lsr	r18
    4cf8:	f6 01       	movw	r30, r12
    4cfa:	e2 0f       	add	r30, r18
    4cfc:	f1 1d       	adc	r31, r1
    4cfe:	20 81       	ld	r18, Z
    4d00:	30 e0       	ldi	r19, 0x00	; 0
    4d02:	ac 01       	movw	r20, r24
    4d04:	47 70       	andi	r20, 0x07	; 7
    4d06:	55 27       	eor	r21, r21
    4d08:	02 c0       	rjmp	.+4      	; 0x4d0e <conv_brk+0x12a>
    4d0a:	35 95       	asr	r19
    4d0c:	27 95       	ror	r18
    4d0e:	4a 95       	dec	r20
    4d10:	e2 f7       	brpl	.-8      	; 0x4d0a <conv_brk+0x126>
    4d12:	20 fd       	sbrc	r18, 0
    4d14:	db cf       	rjmp	.-74     	; 0x4ccc <conv_brk+0xe8>
    4d16:	b5 01       	movw	r22, r10
    4d18:	0e 94 6a 28 	call	0x50d4	; 0x50d4 <ungetc>
    4d1c:	91 10       	cpse	r9, r1
    4d1e:	86 cf       	rjmp	.-244    	; 0x4c2c <conv_brk+0x48>
    4d20:	e1 14       	cp	r14, r1
    4d22:	f1 04       	cpc	r15, r1
    4d24:	11 f0       	breq	.+4      	; 0x4d2a <conv_brk+0x146>
    4d26:	d7 01       	movw	r26, r14
    4d28:	1c 92       	st	X, r1
    4d2a:	c8 01       	movw	r24, r16
    4d2c:	a1 96       	adiw	r28, 0x21	; 33
    4d2e:	ed e0       	ldi	r30, 0x0D	; 13
    4d30:	0c 94 0d 29 	jmp	0x521a	; 0x521a <__epilogue_restores__+0xa>

00004d34 <vfscanf>:
    4d34:	4f 92       	push	r4
    4d36:	5f 92       	push	r5
    4d38:	7f 92       	push	r7
    4d3a:	8f 92       	push	r8
    4d3c:	9f 92       	push	r9
    4d3e:	af 92       	push	r10
    4d40:	bf 92       	push	r11
    4d42:	cf 92       	push	r12
    4d44:	df 92       	push	r13
    4d46:	ef 92       	push	r14
    4d48:	ff 92       	push	r15
    4d4a:	0f 93       	push	r16
    4d4c:	1f 93       	push	r17
    4d4e:	cf 93       	push	r28
    4d50:	df 93       	push	r29
    4d52:	1f 92       	push	r1
    4d54:	cd b7       	in	r28, 0x3d	; 61
    4d56:	de b7       	in	r29, 0x3e	; 62
    4d58:	8c 01       	movw	r16, r24
    4d5a:	2b 01       	movw	r4, r22
    4d5c:	7a 01       	movw	r14, r20
    4d5e:	fc 01       	movw	r30, r24
    4d60:	17 82       	std	Z+7, r1	; 0x07
    4d62:	16 82       	std	Z+6, r1	; 0x06
    4d64:	a1 2c       	mov	r10, r1
    4d66:	f8 01       	movw	r30, r16
    4d68:	d3 80       	ldd	r13, Z+3	; 0x03
    4d6a:	f2 01       	movw	r30, r4
    4d6c:	d3 fc       	sbrc	r13, 3
    4d6e:	85 91       	lpm	r24, Z+
    4d70:	d3 fe       	sbrs	r13, 3
    4d72:	81 91       	ld	r24, Z+
    4d74:	38 2f       	mov	r19, r24
    4d76:	2f 01       	movw	r4, r30
    4d78:	88 23       	and	r24, r24
    4d7a:	09 f4       	brne	.+2      	; 0x4d7e <vfscanf+0x4a>
    4d7c:	fc c0       	rjmp	.+504    	; 0x4f76 <vfscanf+0x242>
    4d7e:	90 e0       	ldi	r25, 0x00	; 0
    4d80:	39 83       	std	Y+1, r19	; 0x01
    4d82:	0e 94 d1 27 	call	0x4fa2	; 0x4fa2 <isspace>
    4d86:	39 81       	ldd	r19, Y+1	; 0x01
    4d88:	89 2b       	or	r24, r25
    4d8a:	21 f0       	breq	.+8      	; 0x4d94 <vfscanf+0x60>
    4d8c:	c8 01       	movw	r24, r16
    4d8e:	0e 94 48 25 	call	0x4a90	; 0x4a90 <skip_spaces>
    4d92:	e9 cf       	rjmp	.-46     	; 0x4d66 <vfscanf+0x32>
    4d94:	35 32       	cpi	r19, 0x25	; 37
    4d96:	41 f4       	brne	.+16     	; 0x4da8 <vfscanf+0x74>
    4d98:	f2 01       	movw	r30, r4
    4d9a:	d3 fc       	sbrc	r13, 3
    4d9c:	35 91       	lpm	r19, Z+
    4d9e:	d3 fe       	sbrs	r13, 3
    4da0:	31 91       	ld	r19, Z+
    4da2:	2f 01       	movw	r4, r30
    4da4:	35 32       	cpi	r19, 0x25	; 37
    4da6:	69 f4       	brne	.+26     	; 0x4dc2 <vfscanf+0x8e>
    4da8:	c8 01       	movw	r24, r16
    4daa:	39 83       	std	Y+1, r19	; 0x01
    4dac:	0e 94 fa 27 	call	0x4ff4	; 0x4ff4 <fgetc>
    4db0:	39 81       	ldd	r19, Y+1	; 0x01
    4db2:	97 fd       	sbrc	r25, 7
    4db4:	de c0       	rjmp	.+444    	; 0x4f72 <vfscanf+0x23e>
    4db6:	38 17       	cp	r19, r24
    4db8:	b1 f2       	breq	.-84     	; 0x4d66 <vfscanf+0x32>
    4dba:	b8 01       	movw	r22, r16
    4dbc:	0e 94 6a 28 	call	0x50d4	; 0x50d4 <ungetc>
    4dc0:	da c0       	rjmp	.+436    	; 0x4f76 <vfscanf+0x242>
    4dc2:	3a 32       	cpi	r19, 0x2A	; 42
    4dc4:	41 f4       	brne	.+16     	; 0x4dd6 <vfscanf+0xa2>
    4dc6:	d3 fc       	sbrc	r13, 3
    4dc8:	35 91       	lpm	r19, Z+
    4dca:	d3 fe       	sbrs	r13, 3
    4dcc:	31 91       	ld	r19, Z+
    4dce:	2f 01       	movw	r4, r30
    4dd0:	bb 24       	eor	r11, r11
    4dd2:	b3 94       	inc	r11
    4dd4:	01 c0       	rjmp	.+2      	; 0x4dd8 <vfscanf+0xa4>
    4dd6:	b1 2c       	mov	r11, r1
    4dd8:	71 2c       	mov	r7, r1
    4dda:	20 ed       	ldi	r18, 0xD0	; 208
    4ddc:	23 0f       	add	r18, r19
    4dde:	2a 30       	cpi	r18, 0x0A	; 10
    4de0:	90 f4       	brcc	.+36     	; 0x4e06 <vfscanf+0xd2>
    4de2:	fb 2d       	mov	r31, r11
    4de4:	f2 60       	ori	r31, 0x02	; 2
    4de6:	bf 2e       	mov	r11, r31
    4de8:	67 2d       	mov	r22, r7
    4dea:	70 e0       	ldi	r23, 0x00	; 0
    4dec:	80 e0       	ldi	r24, 0x00	; 0
    4dee:	90 e0       	ldi	r25, 0x00	; 0
    4df0:	40 e2       	ldi	r20, 0x20	; 32
    4df2:	0e 94 28 25 	call	0x4a50	; 0x4a50 <mulacc>
    4df6:	76 2e       	mov	r7, r22
    4df8:	f2 01       	movw	r30, r4
    4dfa:	d3 fc       	sbrc	r13, 3
    4dfc:	35 91       	lpm	r19, Z+
    4dfe:	d3 fe       	sbrs	r13, 3
    4e00:	31 91       	ld	r19, Z+
    4e02:	2f 01       	movw	r4, r30
    4e04:	ea cf       	rjmp	.-44     	; 0x4dda <vfscanf+0xa6>
    4e06:	b1 fe       	sbrs	r11, 1
    4e08:	03 c0       	rjmp	.+6      	; 0x4e10 <vfscanf+0xdc>
    4e0a:	71 10       	cpse	r7, r1
    4e0c:	03 c0       	rjmp	.+6      	; 0x4e14 <vfscanf+0xe0>
    4e0e:	b3 c0       	rjmp	.+358    	; 0x4f76 <vfscanf+0x242>
    4e10:	77 24       	eor	r7, r7
    4e12:	7a 94       	dec	r7
    4e14:	38 36       	cpi	r19, 0x68	; 104
    4e16:	19 f0       	breq	.+6      	; 0x4e1e <vfscanf+0xea>
    4e18:	3c 36       	cpi	r19, 0x6C	; 108
    4e1a:	61 f0       	breq	.+24     	; 0x4e34 <vfscanf+0x100>
    4e1c:	14 c0       	rjmp	.+40     	; 0x4e46 <vfscanf+0x112>
    4e1e:	f2 01       	movw	r30, r4
    4e20:	d3 fc       	sbrc	r13, 3
    4e22:	35 91       	lpm	r19, Z+
    4e24:	d3 fe       	sbrs	r13, 3
    4e26:	31 91       	ld	r19, Z+
    4e28:	2f 01       	movw	r4, r30
    4e2a:	38 36       	cpi	r19, 0x68	; 104
    4e2c:	61 f4       	brne	.+24     	; 0x4e46 <vfscanf+0x112>
    4e2e:	fb 2d       	mov	r31, r11
    4e30:	f8 60       	ori	r31, 0x08	; 8
    4e32:	bf 2e       	mov	r11, r31
    4e34:	8b 2d       	mov	r24, r11
    4e36:	84 60       	ori	r24, 0x04	; 4
    4e38:	b8 2e       	mov	r11, r24
    4e3a:	f2 01       	movw	r30, r4
    4e3c:	d3 fc       	sbrc	r13, 3
    4e3e:	35 91       	lpm	r19, Z+
    4e40:	d3 fe       	sbrs	r13, 3
    4e42:	31 91       	ld	r19, Z+
    4e44:	2f 01       	movw	r4, r30
    4e46:	33 23       	and	r19, r19
    4e48:	09 f4       	brne	.+2      	; 0x4e4c <vfscanf+0x118>
    4e4a:	95 c0       	rjmp	.+298    	; 0x4f76 <vfscanf+0x242>
    4e4c:	63 2f       	mov	r22, r19
    4e4e:	70 e0       	ldi	r23, 0x00	; 0
    4e50:	86 ec       	ldi	r24, 0xC6	; 198
    4e52:	98 e1       	ldi	r25, 0x18	; 24
    4e54:	39 83       	std	Y+1, r19	; 0x01
    4e56:	0e 94 d9 27 	call	0x4fb2	; 0x4fb2 <strchr_P>
    4e5a:	39 81       	ldd	r19, Y+1	; 0x01
    4e5c:	89 2b       	or	r24, r25
    4e5e:	09 f4       	brne	.+2      	; 0x4e62 <vfscanf+0x12e>
    4e60:	8a c0       	rjmp	.+276    	; 0x4f76 <vfscanf+0x242>
    4e62:	b0 fc       	sbrc	r11, 0
    4e64:	07 c0       	rjmp	.+14     	; 0x4e74 <vfscanf+0x140>
    4e66:	f7 01       	movw	r30, r14
    4e68:	c0 80       	ld	r12, Z
    4e6a:	d1 80       	ldd	r13, Z+1	; 0x01
    4e6c:	c7 01       	movw	r24, r14
    4e6e:	02 96       	adiw	r24, 0x02	; 2
    4e70:	7c 01       	movw	r14, r24
    4e72:	02 c0       	rjmp	.+4      	; 0x4e78 <vfscanf+0x144>
    4e74:	c1 2c       	mov	r12, r1
    4e76:	d1 2c       	mov	r13, r1
    4e78:	3e 36       	cpi	r19, 0x6E	; 110
    4e7a:	51 f4       	brne	.+20     	; 0x4e90 <vfscanf+0x15c>
    4e7c:	f8 01       	movw	r30, r16
    4e7e:	46 81       	ldd	r20, Z+6	; 0x06
    4e80:	57 81       	ldd	r21, Z+7	; 0x07
    4e82:	60 e0       	ldi	r22, 0x00	; 0
    4e84:	70 e0       	ldi	r23, 0x00	; 0
    4e86:	2b 2d       	mov	r18, r11
    4e88:	c6 01       	movw	r24, r12
    4e8a:	0e 94 1c 25 	call	0x4a38	; 0x4a38 <putval>
    4e8e:	6b cf       	rjmp	.-298    	; 0x4d66 <vfscanf+0x32>
    4e90:	33 36       	cpi	r19, 0x63	; 99
    4e92:	a1 f4       	brne	.+40     	; 0x4ebc <vfscanf+0x188>
    4e94:	b1 fc       	sbrc	r11, 1
    4e96:	02 c0       	rjmp	.+4      	; 0x4e9c <vfscanf+0x168>
    4e98:	77 24       	eor	r7, r7
    4e9a:	73 94       	inc	r7
    4e9c:	c8 01       	movw	r24, r16
    4e9e:	0e 94 fa 27 	call	0x4ff4	; 0x4ff4 <fgetc>
    4ea2:	97 fd       	sbrc	r25, 7
    4ea4:	66 c0       	rjmp	.+204    	; 0x4f72 <vfscanf+0x23e>
    4ea6:	c1 14       	cp	r12, r1
    4ea8:	d1 04       	cpc	r13, r1
    4eaa:	29 f0       	breq	.+10     	; 0x4eb6 <vfscanf+0x182>
    4eac:	f6 01       	movw	r30, r12
    4eae:	80 83       	st	Z, r24
    4eb0:	c6 01       	movw	r24, r12
    4eb2:	01 96       	adiw	r24, 0x01	; 1
    4eb4:	6c 01       	movw	r12, r24
    4eb6:	7a 94       	dec	r7
    4eb8:	89 f7       	brne	.-30     	; 0x4e9c <vfscanf+0x168>
    4eba:	57 c0       	rjmp	.+174    	; 0x4f6a <vfscanf+0x236>
    4ebc:	3b 35       	cpi	r19, 0x5B	; 91
    4ebe:	59 f4       	brne	.+22     	; 0x4ed6 <vfscanf+0x1a2>
    4ec0:	92 01       	movw	r18, r4
    4ec2:	a6 01       	movw	r20, r12
    4ec4:	67 2d       	mov	r22, r7
    4ec6:	c8 01       	movw	r24, r16
    4ec8:	0e 94 f2 25 	call	0x4be4	; 0x4be4 <conv_brk>
    4ecc:	2c 01       	movw	r4, r24
    4ece:	00 97       	sbiw	r24, 0x00	; 0
    4ed0:	09 f0       	breq	.+2      	; 0x4ed4 <vfscanf+0x1a0>
    4ed2:	4b c0       	rjmp	.+150    	; 0x4f6a <vfscanf+0x236>
    4ed4:	45 c0       	rjmp	.+138    	; 0x4f60 <vfscanf+0x22c>
    4ed6:	c8 01       	movw	r24, r16
    4ed8:	39 83       	std	Y+1, r19	; 0x01
    4eda:	0e 94 48 25 	call	0x4a90	; 0x4a90 <skip_spaces>
    4ede:	39 81       	ldd	r19, Y+1	; 0x01
    4ee0:	97 fd       	sbrc	r25, 7
    4ee2:	47 c0       	rjmp	.+142    	; 0x4f72 <vfscanf+0x23e>
    4ee4:	3f 36       	cpi	r19, 0x6F	; 111
    4ee6:	69 f1       	breq	.+90     	; 0x4f42 <vfscanf+0x20e>
    4ee8:	28 f4       	brcc	.+10     	; 0x4ef4 <vfscanf+0x1c0>
    4eea:	34 36       	cpi	r19, 0x64	; 100
    4eec:	31 f1       	breq	.+76     	; 0x4f3a <vfscanf+0x206>
    4eee:	39 36       	cpi	r19, 0x69	; 105
    4ef0:	79 f1       	breq	.+94     	; 0x4f50 <vfscanf+0x21c>
    4ef2:	2b c0       	rjmp	.+86     	; 0x4f4a <vfscanf+0x216>
    4ef4:	33 37       	cpi	r19, 0x73	; 115
    4ef6:	69 f0       	breq	.+26     	; 0x4f12 <vfscanf+0x1de>
    4ef8:	35 37       	cpi	r19, 0x75	; 117
    4efa:	f9 f0       	breq	.+62     	; 0x4f3a <vfscanf+0x206>
    4efc:	26 c0       	rjmp	.+76     	; 0x4f4a <vfscanf+0x216>
    4efe:	c1 14       	cp	r12, r1
    4f00:	d1 04       	cpc	r13, r1
    4f02:	29 f0       	breq	.+10     	; 0x4f0e <vfscanf+0x1da>
    4f04:	f6 01       	movw	r30, r12
    4f06:	80 82       	st	Z, r8
    4f08:	c6 01       	movw	r24, r12
    4f0a:	01 96       	adiw	r24, 0x01	; 1
    4f0c:	6c 01       	movw	r12, r24
    4f0e:	7a 94       	dec	r7
    4f10:	71 f0       	breq	.+28     	; 0x4f2e <vfscanf+0x1fa>
    4f12:	c8 01       	movw	r24, r16
    4f14:	0e 94 fa 27 	call	0x4ff4	; 0x4ff4 <fgetc>
    4f18:	4c 01       	movw	r8, r24
    4f1a:	97 fd       	sbrc	r25, 7
    4f1c:	08 c0       	rjmp	.+16     	; 0x4f2e <vfscanf+0x1fa>
    4f1e:	0e 94 d1 27 	call	0x4fa2	; 0x4fa2 <isspace>
    4f22:	89 2b       	or	r24, r25
    4f24:	61 f3       	breq	.-40     	; 0x4efe <vfscanf+0x1ca>
    4f26:	b8 01       	movw	r22, r16
    4f28:	c4 01       	movw	r24, r8
    4f2a:	0e 94 6a 28 	call	0x50d4	; 0x50d4 <ungetc>
    4f2e:	c1 14       	cp	r12, r1
    4f30:	d1 04       	cpc	r13, r1
    4f32:	d9 f0       	breq	.+54     	; 0x4f6a <vfscanf+0x236>
    4f34:	f6 01       	movw	r30, r12
    4f36:	10 82       	st	Z, r1
    4f38:	18 c0       	rjmp	.+48     	; 0x4f6a <vfscanf+0x236>
    4f3a:	fb 2d       	mov	r31, r11
    4f3c:	f0 62       	ori	r31, 0x20	; 32
    4f3e:	bf 2e       	mov	r11, r31
    4f40:	07 c0       	rjmp	.+14     	; 0x4f50 <vfscanf+0x21c>
    4f42:	8b 2d       	mov	r24, r11
    4f44:	80 61       	ori	r24, 0x10	; 16
    4f46:	b8 2e       	mov	r11, r24
    4f48:	03 c0       	rjmp	.+6      	; 0x4f50 <vfscanf+0x21c>
    4f4a:	9b 2d       	mov	r25, r11
    4f4c:	90 64       	ori	r25, 0x40	; 64
    4f4e:	b9 2e       	mov	r11, r25
    4f50:	2b 2d       	mov	r18, r11
    4f52:	a6 01       	movw	r20, r12
    4f54:	67 2d       	mov	r22, r7
    4f56:	c8 01       	movw	r24, r16
    4f58:	0e 94 61 25 	call	0x4ac2	; 0x4ac2 <conv_int>
    4f5c:	81 11       	cpse	r24, r1
    4f5e:	05 c0       	rjmp	.+10     	; 0x4f6a <vfscanf+0x236>
    4f60:	f8 01       	movw	r30, r16
    4f62:	83 81       	ldd	r24, Z+3	; 0x03
    4f64:	80 73       	andi	r24, 0x30	; 48
    4f66:	29 f4       	brne	.+10     	; 0x4f72 <vfscanf+0x23e>
    4f68:	06 c0       	rjmp	.+12     	; 0x4f76 <vfscanf+0x242>
    4f6a:	b0 fc       	sbrc	r11, 0
    4f6c:	fc ce       	rjmp	.-520    	; 0x4d66 <vfscanf+0x32>
    4f6e:	a3 94       	inc	r10
    4f70:	fa ce       	rjmp	.-524    	; 0x4d66 <vfscanf+0x32>
    4f72:	aa 20       	and	r10, r10
    4f74:	19 f0       	breq	.+6      	; 0x4f7c <vfscanf+0x248>
    4f76:	8a 2d       	mov	r24, r10
    4f78:	90 e0       	ldi	r25, 0x00	; 0
    4f7a:	02 c0       	rjmp	.+4      	; 0x4f80 <vfscanf+0x24c>
    4f7c:	8f ef       	ldi	r24, 0xFF	; 255
    4f7e:	9f ef       	ldi	r25, 0xFF	; 255
    4f80:	0f 90       	pop	r0
    4f82:	df 91       	pop	r29
    4f84:	cf 91       	pop	r28
    4f86:	1f 91       	pop	r17
    4f88:	0f 91       	pop	r16
    4f8a:	ff 90       	pop	r15
    4f8c:	ef 90       	pop	r14
    4f8e:	df 90       	pop	r13
    4f90:	cf 90       	pop	r12
    4f92:	bf 90       	pop	r11
    4f94:	af 90       	pop	r10
    4f96:	9f 90       	pop	r9
    4f98:	8f 90       	pop	r8
    4f9a:	7f 90       	pop	r7
    4f9c:	5f 90       	pop	r5
    4f9e:	4f 90       	pop	r4
    4fa0:	08 95       	ret

00004fa2 <isspace>:
    4fa2:	91 11       	cpse	r25, r1
    4fa4:	0e c1       	rjmp	.+540    	; 0x51c2 <__ctype_isfalse>
    4fa6:	80 32       	cpi	r24, 0x20	; 32
    4fa8:	19 f0       	breq	.+6      	; 0x4fb0 <isspace+0xe>
    4faa:	89 50       	subi	r24, 0x09	; 9
    4fac:	85 50       	subi	r24, 0x05	; 5
    4fae:	d0 f7       	brcc	.-12     	; 0x4fa4 <isspace+0x2>
    4fb0:	08 95       	ret

00004fb2 <strchr_P>:
    4fb2:	fc 01       	movw	r30, r24
    4fb4:	05 90       	lpm	r0, Z+
    4fb6:	06 16       	cp	r0, r22
    4fb8:	21 f0       	breq	.+8      	; 0x4fc2 <strchr_P+0x10>
    4fba:	00 20       	and	r0, r0
    4fbc:	d9 f7       	brne	.-10     	; 0x4fb4 <strchr_P+0x2>
    4fbe:	c0 01       	movw	r24, r0
    4fc0:	08 95       	ret
    4fc2:	31 97       	sbiw	r30, 0x01	; 1
    4fc4:	cf 01       	movw	r24, r30
    4fc6:	08 95       	ret

00004fc8 <strnlen_P>:
    4fc8:	fc 01       	movw	r30, r24
    4fca:	05 90       	lpm	r0, Z+
    4fcc:	61 50       	subi	r22, 0x01	; 1
    4fce:	70 40       	sbci	r23, 0x00	; 0
    4fd0:	01 10       	cpse	r0, r1
    4fd2:	d8 f7       	brcc	.-10     	; 0x4fca <strnlen_P+0x2>
    4fd4:	80 95       	com	r24
    4fd6:	90 95       	com	r25
    4fd8:	8e 0f       	add	r24, r30
    4fda:	9f 1f       	adc	r25, r31
    4fdc:	08 95       	ret

00004fde <strnlen>:
    4fde:	fc 01       	movw	r30, r24
    4fe0:	61 50       	subi	r22, 0x01	; 1
    4fe2:	70 40       	sbci	r23, 0x00	; 0
    4fe4:	01 90       	ld	r0, Z+
    4fe6:	01 10       	cpse	r0, r1
    4fe8:	d8 f7       	brcc	.-10     	; 0x4fe0 <strnlen+0x2>
    4fea:	80 95       	com	r24
    4fec:	90 95       	com	r25
    4fee:	8e 0f       	add	r24, r30
    4ff0:	9f 1f       	adc	r25, r31
    4ff2:	08 95       	ret

00004ff4 <fgetc>:
    4ff4:	cf 93       	push	r28
    4ff6:	df 93       	push	r29
    4ff8:	ec 01       	movw	r28, r24
    4ffa:	2b 81       	ldd	r18, Y+3	; 0x03
    4ffc:	20 ff       	sbrs	r18, 0
    4ffe:	33 c0       	rjmp	.+102    	; 0x5066 <fgetc+0x72>
    5000:	26 ff       	sbrs	r18, 6
    5002:	0a c0       	rjmp	.+20     	; 0x5018 <fgetc+0x24>
    5004:	2f 7b       	andi	r18, 0xBF	; 191
    5006:	2b 83       	std	Y+3, r18	; 0x03
    5008:	8e 81       	ldd	r24, Y+6	; 0x06
    500a:	9f 81       	ldd	r25, Y+7	; 0x07
    500c:	01 96       	adiw	r24, 0x01	; 1
    500e:	9f 83       	std	Y+7, r25	; 0x07
    5010:	8e 83       	std	Y+6, r24	; 0x06
    5012:	8a 81       	ldd	r24, Y+2	; 0x02
    5014:	90 e0       	ldi	r25, 0x00	; 0
    5016:	29 c0       	rjmp	.+82     	; 0x506a <fgetc+0x76>
    5018:	22 ff       	sbrs	r18, 2
    501a:	0f c0       	rjmp	.+30     	; 0x503a <fgetc+0x46>
    501c:	e8 81       	ld	r30, Y
    501e:	f9 81       	ldd	r31, Y+1	; 0x01
    5020:	80 81       	ld	r24, Z
    5022:	99 27       	eor	r25, r25
    5024:	87 fd       	sbrc	r24, 7
    5026:	90 95       	com	r25
    5028:	00 97       	sbiw	r24, 0x00	; 0
    502a:	19 f4       	brne	.+6      	; 0x5032 <fgetc+0x3e>
    502c:	20 62       	ori	r18, 0x20	; 32
    502e:	2b 83       	std	Y+3, r18	; 0x03
    5030:	1a c0       	rjmp	.+52     	; 0x5066 <fgetc+0x72>
    5032:	31 96       	adiw	r30, 0x01	; 1
    5034:	f9 83       	std	Y+1, r31	; 0x01
    5036:	e8 83       	st	Y, r30
    5038:	0e c0       	rjmp	.+28     	; 0x5056 <fgetc+0x62>
    503a:	ea 85       	ldd	r30, Y+10	; 0x0a
    503c:	fb 85       	ldd	r31, Y+11	; 0x0b
    503e:	09 95       	icall
    5040:	97 ff       	sbrs	r25, 7
    5042:	09 c0       	rjmp	.+18     	; 0x5056 <fgetc+0x62>
    5044:	2b 81       	ldd	r18, Y+3	; 0x03
    5046:	01 96       	adiw	r24, 0x01	; 1
    5048:	11 f4       	brne	.+4      	; 0x504e <fgetc+0x5a>
    504a:	80 e1       	ldi	r24, 0x10	; 16
    504c:	01 c0       	rjmp	.+2      	; 0x5050 <fgetc+0x5c>
    504e:	80 e2       	ldi	r24, 0x20	; 32
    5050:	82 2b       	or	r24, r18
    5052:	8b 83       	std	Y+3, r24	; 0x03
    5054:	08 c0       	rjmp	.+16     	; 0x5066 <fgetc+0x72>
    5056:	2e 81       	ldd	r18, Y+6	; 0x06
    5058:	3f 81       	ldd	r19, Y+7	; 0x07
    505a:	2f 5f       	subi	r18, 0xFF	; 255
    505c:	3f 4f       	sbci	r19, 0xFF	; 255
    505e:	3f 83       	std	Y+7, r19	; 0x07
    5060:	2e 83       	std	Y+6, r18	; 0x06
    5062:	99 27       	eor	r25, r25
    5064:	02 c0       	rjmp	.+4      	; 0x506a <fgetc+0x76>
    5066:	8f ef       	ldi	r24, 0xFF	; 255
    5068:	9f ef       	ldi	r25, 0xFF	; 255
    506a:	df 91       	pop	r29
    506c:	cf 91       	pop	r28
    506e:	08 95       	ret

00005070 <fputc>:
    5070:	0f 93       	push	r16
    5072:	1f 93       	push	r17
    5074:	cf 93       	push	r28
    5076:	df 93       	push	r29
    5078:	18 2f       	mov	r17, r24
    507a:	09 2f       	mov	r16, r25
    507c:	eb 01       	movw	r28, r22
    507e:	8b 81       	ldd	r24, Y+3	; 0x03
    5080:	81 fd       	sbrc	r24, 1
    5082:	03 c0       	rjmp	.+6      	; 0x508a <fputc+0x1a>
    5084:	8f ef       	ldi	r24, 0xFF	; 255
    5086:	9f ef       	ldi	r25, 0xFF	; 255
    5088:	20 c0       	rjmp	.+64     	; 0x50ca <fputc+0x5a>
    508a:	82 ff       	sbrs	r24, 2
    508c:	10 c0       	rjmp	.+32     	; 0x50ae <fputc+0x3e>
    508e:	4e 81       	ldd	r20, Y+6	; 0x06
    5090:	5f 81       	ldd	r21, Y+7	; 0x07
    5092:	2c 81       	ldd	r18, Y+4	; 0x04
    5094:	3d 81       	ldd	r19, Y+5	; 0x05
    5096:	42 17       	cp	r20, r18
    5098:	53 07       	cpc	r21, r19
    509a:	7c f4       	brge	.+30     	; 0x50ba <fputc+0x4a>
    509c:	e8 81       	ld	r30, Y
    509e:	f9 81       	ldd	r31, Y+1	; 0x01
    50a0:	9f 01       	movw	r18, r30
    50a2:	2f 5f       	subi	r18, 0xFF	; 255
    50a4:	3f 4f       	sbci	r19, 0xFF	; 255
    50a6:	39 83       	std	Y+1, r19	; 0x01
    50a8:	28 83       	st	Y, r18
    50aa:	10 83       	st	Z, r17
    50ac:	06 c0       	rjmp	.+12     	; 0x50ba <fputc+0x4a>
    50ae:	e8 85       	ldd	r30, Y+8	; 0x08
    50b0:	f9 85       	ldd	r31, Y+9	; 0x09
    50b2:	81 2f       	mov	r24, r17
    50b4:	09 95       	icall
    50b6:	89 2b       	or	r24, r25
    50b8:	29 f7       	brne	.-54     	; 0x5084 <fputc+0x14>
    50ba:	2e 81       	ldd	r18, Y+6	; 0x06
    50bc:	3f 81       	ldd	r19, Y+7	; 0x07
    50be:	2f 5f       	subi	r18, 0xFF	; 255
    50c0:	3f 4f       	sbci	r19, 0xFF	; 255
    50c2:	3f 83       	std	Y+7, r19	; 0x07
    50c4:	2e 83       	std	Y+6, r18	; 0x06
    50c6:	81 2f       	mov	r24, r17
    50c8:	90 2f       	mov	r25, r16
    50ca:	df 91       	pop	r29
    50cc:	cf 91       	pop	r28
    50ce:	1f 91       	pop	r17
    50d0:	0f 91       	pop	r16
    50d2:	08 95       	ret

000050d4 <ungetc>:
    50d4:	fb 01       	movw	r30, r22
    50d6:	23 81       	ldd	r18, Z+3	; 0x03
    50d8:	20 ff       	sbrs	r18, 0
    50da:	12 c0       	rjmp	.+36     	; 0x5100 <ungetc+0x2c>
    50dc:	26 fd       	sbrc	r18, 6
    50de:	10 c0       	rjmp	.+32     	; 0x5100 <ungetc+0x2c>
    50e0:	8f 3f       	cpi	r24, 0xFF	; 255
    50e2:	3f ef       	ldi	r19, 0xFF	; 255
    50e4:	93 07       	cpc	r25, r19
    50e6:	61 f0       	breq	.+24     	; 0x5100 <ungetc+0x2c>
    50e8:	82 83       	std	Z+2, r24	; 0x02
    50ea:	2f 7d       	andi	r18, 0xDF	; 223
    50ec:	20 64       	ori	r18, 0x40	; 64
    50ee:	23 83       	std	Z+3, r18	; 0x03
    50f0:	26 81       	ldd	r18, Z+6	; 0x06
    50f2:	37 81       	ldd	r19, Z+7	; 0x07
    50f4:	21 50       	subi	r18, 0x01	; 1
    50f6:	31 09       	sbc	r19, r1
    50f8:	37 83       	std	Z+7, r19	; 0x07
    50fa:	26 83       	std	Z+6, r18	; 0x06
    50fc:	99 27       	eor	r25, r25
    50fe:	08 95       	ret
    5100:	8f ef       	ldi	r24, 0xFF	; 255
    5102:	9f ef       	ldi	r25, 0xFF	; 255
    5104:	08 95       	ret

00005106 <__ultoa_invert>:
    5106:	fa 01       	movw	r30, r20
    5108:	aa 27       	eor	r26, r26
    510a:	28 30       	cpi	r18, 0x08	; 8
    510c:	51 f1       	breq	.+84     	; 0x5162 <__ultoa_invert+0x5c>
    510e:	20 31       	cpi	r18, 0x10	; 16
    5110:	81 f1       	breq	.+96     	; 0x5172 <__ultoa_invert+0x6c>
    5112:	e8 94       	clt
    5114:	6f 93       	push	r22
    5116:	6e 7f       	andi	r22, 0xFE	; 254
    5118:	6e 5f       	subi	r22, 0xFE	; 254
    511a:	7f 4f       	sbci	r23, 0xFF	; 255
    511c:	8f 4f       	sbci	r24, 0xFF	; 255
    511e:	9f 4f       	sbci	r25, 0xFF	; 255
    5120:	af 4f       	sbci	r26, 0xFF	; 255
    5122:	b1 e0       	ldi	r27, 0x01	; 1
    5124:	3e d0       	rcall	.+124    	; 0x51a2 <__ultoa_invert+0x9c>
    5126:	b4 e0       	ldi	r27, 0x04	; 4
    5128:	3c d0       	rcall	.+120    	; 0x51a2 <__ultoa_invert+0x9c>
    512a:	67 0f       	add	r22, r23
    512c:	78 1f       	adc	r23, r24
    512e:	89 1f       	adc	r24, r25
    5130:	9a 1f       	adc	r25, r26
    5132:	a1 1d       	adc	r26, r1
    5134:	68 0f       	add	r22, r24
    5136:	79 1f       	adc	r23, r25
    5138:	8a 1f       	adc	r24, r26
    513a:	91 1d       	adc	r25, r1
    513c:	a1 1d       	adc	r26, r1
    513e:	6a 0f       	add	r22, r26
    5140:	71 1d       	adc	r23, r1
    5142:	81 1d       	adc	r24, r1
    5144:	91 1d       	adc	r25, r1
    5146:	a1 1d       	adc	r26, r1
    5148:	20 d0       	rcall	.+64     	; 0x518a <__ultoa_invert+0x84>
    514a:	09 f4       	brne	.+2      	; 0x514e <__ultoa_invert+0x48>
    514c:	68 94       	set
    514e:	3f 91       	pop	r19
    5150:	2a e0       	ldi	r18, 0x0A	; 10
    5152:	26 9f       	mul	r18, r22
    5154:	11 24       	eor	r1, r1
    5156:	30 19       	sub	r19, r0
    5158:	30 5d       	subi	r19, 0xD0	; 208
    515a:	31 93       	st	Z+, r19
    515c:	de f6       	brtc	.-74     	; 0x5114 <__ultoa_invert+0xe>
    515e:	cf 01       	movw	r24, r30
    5160:	08 95       	ret
    5162:	46 2f       	mov	r20, r22
    5164:	47 70       	andi	r20, 0x07	; 7
    5166:	40 5d       	subi	r20, 0xD0	; 208
    5168:	41 93       	st	Z+, r20
    516a:	b3 e0       	ldi	r27, 0x03	; 3
    516c:	0f d0       	rcall	.+30     	; 0x518c <__ultoa_invert+0x86>
    516e:	c9 f7       	brne	.-14     	; 0x5162 <__ultoa_invert+0x5c>
    5170:	f6 cf       	rjmp	.-20     	; 0x515e <__ultoa_invert+0x58>
    5172:	46 2f       	mov	r20, r22
    5174:	4f 70       	andi	r20, 0x0F	; 15
    5176:	40 5d       	subi	r20, 0xD0	; 208
    5178:	4a 33       	cpi	r20, 0x3A	; 58
    517a:	18 f0       	brcs	.+6      	; 0x5182 <__ultoa_invert+0x7c>
    517c:	49 5d       	subi	r20, 0xD9	; 217
    517e:	31 fd       	sbrc	r19, 1
    5180:	40 52       	subi	r20, 0x20	; 32
    5182:	41 93       	st	Z+, r20
    5184:	02 d0       	rcall	.+4      	; 0x518a <__ultoa_invert+0x84>
    5186:	a9 f7       	brne	.-22     	; 0x5172 <__ultoa_invert+0x6c>
    5188:	ea cf       	rjmp	.-44     	; 0x515e <__ultoa_invert+0x58>
    518a:	b4 e0       	ldi	r27, 0x04	; 4
    518c:	a6 95       	lsr	r26
    518e:	97 95       	ror	r25
    5190:	87 95       	ror	r24
    5192:	77 95       	ror	r23
    5194:	67 95       	ror	r22
    5196:	ba 95       	dec	r27
    5198:	c9 f7       	brne	.-14     	; 0x518c <__ultoa_invert+0x86>
    519a:	00 97       	sbiw	r24, 0x00	; 0
    519c:	61 05       	cpc	r22, r1
    519e:	71 05       	cpc	r23, r1
    51a0:	08 95       	ret
    51a2:	9b 01       	movw	r18, r22
    51a4:	ac 01       	movw	r20, r24
    51a6:	0a 2e       	mov	r0, r26
    51a8:	06 94       	lsr	r0
    51aa:	57 95       	ror	r21
    51ac:	47 95       	ror	r20
    51ae:	37 95       	ror	r19
    51b0:	27 95       	ror	r18
    51b2:	ba 95       	dec	r27
    51b4:	c9 f7       	brne	.-14     	; 0x51a8 <__ultoa_invert+0xa2>
    51b6:	62 0f       	add	r22, r18
    51b8:	73 1f       	adc	r23, r19
    51ba:	84 1f       	adc	r24, r20
    51bc:	95 1f       	adc	r25, r21
    51be:	a0 1d       	adc	r26, r0
    51c0:	08 95       	ret

000051c2 <__ctype_isfalse>:
    51c2:	99 27       	eor	r25, r25
    51c4:	88 27       	eor	r24, r24

000051c6 <__ctype_istrue>:
    51c6:	08 95       	ret

000051c8 <__mulshisi3>:
    51c8:	b7 ff       	sbrs	r27, 7
    51ca:	0c 94 c4 21 	jmp	0x4388	; 0x4388 <__muluhisi3>

000051ce <__mulohisi3>:
    51ce:	0e 94 c4 21 	call	0x4388	; 0x4388 <__muluhisi3>
    51d2:	82 1b       	sub	r24, r18
    51d4:	93 0b       	sbc	r25, r19
    51d6:	08 95       	ret

000051d8 <__prologue_saves__>:
    51d8:	2f 92       	push	r2
    51da:	3f 92       	push	r3
    51dc:	4f 92       	push	r4
    51de:	5f 92       	push	r5
    51e0:	6f 92       	push	r6
    51e2:	7f 92       	push	r7
    51e4:	8f 92       	push	r8
    51e6:	9f 92       	push	r9
    51e8:	af 92       	push	r10
    51ea:	bf 92       	push	r11
    51ec:	cf 92       	push	r12
    51ee:	df 92       	push	r13
    51f0:	ef 92       	push	r14
    51f2:	ff 92       	push	r15
    51f4:	0f 93       	push	r16
    51f6:	1f 93       	push	r17
    51f8:	cf 93       	push	r28
    51fa:	df 93       	push	r29
    51fc:	cd b7       	in	r28, 0x3d	; 61
    51fe:	de b7       	in	r29, 0x3e	; 62
    5200:	ca 1b       	sub	r28, r26
    5202:	db 0b       	sbc	r29, r27
    5204:	0f b6       	in	r0, 0x3f	; 63
    5206:	f8 94       	cli
    5208:	de bf       	out	0x3e, r29	; 62
    520a:	0f be       	out	0x3f, r0	; 63
    520c:	cd bf       	out	0x3d, r28	; 61
    520e:	09 94       	ijmp

00005210 <__epilogue_restores__>:
    5210:	2a 88       	ldd	r2, Y+18	; 0x12
    5212:	39 88       	ldd	r3, Y+17	; 0x11
    5214:	48 88       	ldd	r4, Y+16	; 0x10
    5216:	5f 84       	ldd	r5, Y+15	; 0x0f
    5218:	6e 84       	ldd	r6, Y+14	; 0x0e
    521a:	7d 84       	ldd	r7, Y+13	; 0x0d
    521c:	8c 84       	ldd	r8, Y+12	; 0x0c
    521e:	9b 84       	ldd	r9, Y+11	; 0x0b
    5220:	aa 84       	ldd	r10, Y+10	; 0x0a
    5222:	b9 84       	ldd	r11, Y+9	; 0x09
    5224:	c8 84       	ldd	r12, Y+8	; 0x08
    5226:	df 80       	ldd	r13, Y+7	; 0x07
    5228:	ee 80       	ldd	r14, Y+6	; 0x06
    522a:	fd 80       	ldd	r15, Y+5	; 0x05
    522c:	0c 81       	ldd	r16, Y+4	; 0x04
    522e:	1b 81       	ldd	r17, Y+3	; 0x03
    5230:	aa 81       	ldd	r26, Y+2	; 0x02
    5232:	b9 81       	ldd	r27, Y+1	; 0x01
    5234:	ce 0f       	add	r28, r30
    5236:	d1 1d       	adc	r29, r1
    5238:	0f b6       	in	r0, 0x3f	; 63
    523a:	f8 94       	cli
    523c:	de bf       	out	0x3e, r29	; 62
    523e:	0f be       	out	0x3f, r0	; 63
    5240:	cd bf       	out	0x3d, r28	; 61
    5242:	ed 01       	movw	r28, r26
    5244:	08 95       	ret

00005246 <_exit>:
    5246:	f8 94       	cli

00005248 <__stop_program>:
    5248:	ff cf       	rjmp	.-2      	; 0x5248 <__stop_program>
